cMultiNEAT._MultiNEAT
Genome
p0
(tRp1
S'22 serialization::archive 14 0 0 2535 0 0 86 0 0 0 1 1 0.00000000000000000e+00 0.00000000000000000e+00 0.00000000000000000e+00 0.00000000000000000e+00 4 1 1 0.00000000000000000e+00 2 1 0.00000000000000000e+00 0.00000000000000000e+00 0.00000000000000000e+00 0.00000000000000000e+00 4 1 1 0.00000000000000000e+00 3 1 0.00000000000000000e+00 0.00000000000000000e+00 0.00000000000000000e+00 0.00000000000000000e+00 4 1 1 0.00000000000000000e+00 4 1 0.00000000000000000e+00 0.00000000000000000e+00 0.00000000000000000e+00 0.00000000000000000e+00 4 1 1 0.00000000000000000e+00 5 1 0.00000000000000000e+00 0.00000000000000000e+00 0.00000000000000000e+00 0.00000000000000000e+00 4 1 1 0.00000000000000000e+00 6 1 0.00000000000000000e+00 0.00000000000000000e+00 0.00000000000000000e+00 0.00000000000000000e+00 4 1 1 0.00000000000000000e+00 7 1 0.00000000000000000e+00 0.00000000000000000e+00 0.00000000000000000e+00 0.00000000000000000e+00 4 1 1 0.00000000000000000e+00 8 1 0.00000000000000000e+00 0.00000000000000000e+00 0.00000000000000000e+00 0.00000000000000000e+00 4 1 1 0.00000000000000000e+00 9 1 0.00000000000000000e+00 0.00000000000000000e+00 0.00000000000000000e+00 0.00000000000000000e+00 4 1 1 0.00000000000000000e+00 10 1 0.00000000000000000e+00 0.00000000000000000e+00 0.00000000000000000e+00 0.00000000000000000e+00 4 1 1 0.00000000000000000e+00 11 1 0.00000000000000000e+00 0.00000000000000000e+00 0.00000000000000000e+00 0.00000000000000000e+00 4 1 1 0.00000000000000000e+00 12 1 0.00000000000000000e+00 0.00000000000000000e+00 0.00000000000000000e+00 0.00000000000000000e+00 4 1 1 0.00000000000000000e+00 13 1 0.00000000000000000e+00 0.00000000000000000e+00 0.00000000000000000e+00 0.00000000000000000e+00 4 1 1 0.00000000000000000e+00 14 1 0.00000000000000000e+00 0.00000000000000000e+00 0.00000000000000000e+00 0.00000000000000000e+00 4 1 1 0.00000000000000000e+00 15 1 0.00000000000000000e+00 0.00000000000000000e+00 0.00000000000000000e+00 0.00000000000000000e+00 4 1 1 0.00000000000000000e+00 16 1 0.00000000000000000e+00 0.00000000000000000e+00 0.00000000000000000e+00 0.00000000000000000e+00 4 1 1 0.00000000000000000e+00 17 1 0.00000000000000000e+00 0.00000000000000000e+00 0.00000000000000000e+00 0.00000000000000000e+00 4 1 1 0.00000000000000000e+00 18 1 0.00000000000000000e+00 0.00000000000000000e+00 0.00000000000000000e+00 0.00000000000000000e+00 4 1 1 0.00000000000000000e+00 19 1 0.00000000000000000e+00 0.00000000000000000e+00 0.00000000000000000e+00 0.00000000000000000e+00 4 1 1 0.00000000000000000e+00 20 1 0.00000000000000000e+00 0.00000000000000000e+00 0.00000000000000000e+00 0.00000000000000000e+00 4 1 1 0.00000000000000000e+00 21 1 0.00000000000000000e+00 0.00000000000000000e+00 0.00000000000000000e+00 0.00000000000000000e+00 4 1 1 0.00000000000000000e+00 22 1 0.00000000000000000e+00 0.00000000000000000e+00 0.00000000000000000e+00 0.00000000000000000e+00 4 1 1 0.00000000000000000e+00 23 1 0.00000000000000000e+00 0.00000000000000000e+00 0.00000000000000000e+00 0.00000000000000000e+00 4 1 1 0.00000000000000000e+00 24 1 0.00000000000000000e+00 0.00000000000000000e+00 0.00000000000000000e+00 0.00000000000000000e+00 4 1 1 0.00000000000000000e+00 25 1 0.00000000000000000e+00 0.00000000000000000e+00 0.00000000000000000e+00 0.00000000000000000e+00 4 1 1 0.00000000000000000e+00 26 1 0.00000000000000000e+00 0.00000000000000000e+00 0.00000000000000000e+00 0.00000000000000000e+00 4 1 1 0.00000000000000000e+00 27 1 0.00000000000000000e+00 0.00000000000000000e+00 0.00000000000000000e+00 0.00000000000000000e+00 4 1 1 0.00000000000000000e+00 28 1 0.00000000000000000e+00 0.00000000000000000e+00 0.00000000000000000e+00 0.00000000000000000e+00 4 1 1 0.00000000000000000e+00 29 1 0.00000000000000000e+00 0.00000000000000000e+00 0.00000000000000000e+00 0.00000000000000000e+00 4 1 1 0.00000000000000000e+00 30 1 0.00000000000000000e+00 0.00000000000000000e+00 0.00000000000000000e+00 0.00000000000000000e+00 4 1 1 0.00000000000000000e+00 31 1 0.00000000000000000e+00 0.00000000000000000e+00 0.00000000000000000e+00 0.00000000000000000e+00 4 1 1 0.00000000000000000e+00 32 1 0.00000000000000000e+00 0.00000000000000000e+00 0.00000000000000000e+00 0.00000000000000000e+00 4 1 1 0.00000000000000000e+00 33 1 0.00000000000000000e+00 0.00000000000000000e+00 0.00000000000000000e+00 0.00000000000000000e+00 4 1 1 0.00000000000000000e+00 34 1 0.00000000000000000e+00 0.00000000000000000e+00 0.00000000000000000e+00 0.00000000000000000e+00 4 1 1 0.00000000000000000e+00 35 1 0.00000000000000000e+00 0.00000000000000000e+00 0.00000000000000000e+00 0.00000000000000000e+00 4 1 1 0.00000000000000000e+00 36 1 0.00000000000000000e+00 0.00000000000000000e+00 0.00000000000000000e+00 0.00000000000000000e+00 4 1 1 0.00000000000000000e+00 37 1 0.00000000000000000e+00 0.00000000000000000e+00 0.00000000000000000e+00 0.00000000000000000e+00 4 1 1 0.00000000000000000e+00 38 1 0.00000000000000000e+00 0.00000000000000000e+00 0.00000000000000000e+00 0.00000000000000000e+00 4 1 1 0.00000000000000000e+00 39 1 0.00000000000000000e+00 0.00000000000000000e+00 0.00000000000000000e+00 0.00000000000000000e+00 4 1 1 0.00000000000000000e+00 40 1 0.00000000000000000e+00 0.00000000000000000e+00 0.00000000000000000e+00 0.00000000000000000e+00 4 1 1 0.00000000000000000e+00 41 1 0.00000000000000000e+00 0.00000000000000000e+00 0.00000000000000000e+00 0.00000000000000000e+00 4 1 1 0.00000000000000000e+00 42 1 0.00000000000000000e+00 0.00000000000000000e+00 0.00000000000000000e+00 0.00000000000000000e+00 4 1 1 0.00000000000000000e+00 43 1 0.00000000000000000e+00 0.00000000000000000e+00 0.00000000000000000e+00 0.00000000000000000e+00 4 1 1 0.00000000000000000e+00 44 1 0.00000000000000000e+00 0.00000000000000000e+00 0.00000000000000000e+00 0.00000000000000000e+00 4 1 1 0.00000000000000000e+00 45 1 0.00000000000000000e+00 0.00000000000000000e+00 0.00000000000000000e+00 0.00000000000000000e+00 4 1 1 0.00000000000000000e+00 46 1 0.00000000000000000e+00 0.00000000000000000e+00 0.00000000000000000e+00 0.00000000000000000e+00 4 1 1 0.00000000000000000e+00 47 1 0.00000000000000000e+00 0.00000000000000000e+00 0.00000000000000000e+00 0.00000000000000000e+00 4 1 1 0.00000000000000000e+00 48 1 0.00000000000000000e+00 0.00000000000000000e+00 0.00000000000000000e+00 0.00000000000000000e+00 4 1 1 0.00000000000000000e+00 49 1 0.00000000000000000e+00 0.00000000000000000e+00 0.00000000000000000e+00 0.00000000000000000e+00 4 1 1 0.00000000000000000e+00 50 1 0.00000000000000000e+00 0.00000000000000000e+00 0.00000000000000000e+00 0.00000000000000000e+00 4 1 1 0.00000000000000000e+00 51 1 0.00000000000000000e+00 0.00000000000000000e+00 0.00000000000000000e+00 0.00000000000000000e+00 4 1 1 0.00000000000000000e+00 52 1 0.00000000000000000e+00 0.00000000000000000e+00 0.00000000000000000e+00 0.00000000000000000e+00 4 1 1 0.00000000000000000e+00 53 1 0.00000000000000000e+00 0.00000000000000000e+00 0.00000000000000000e+00 0.00000000000000000e+00 4 1 1 0.00000000000000000e+00 54 1 0.00000000000000000e+00 0.00000000000000000e+00 0.00000000000000000e+00 0.00000000000000000e+00 4 1 1 0.00000000000000000e+00 55 1 0.00000000000000000e+00 0.00000000000000000e+00 0.00000000000000000e+00 0.00000000000000000e+00 4 1 1 0.00000000000000000e+00 56 1 0.00000000000000000e+00 0.00000000000000000e+00 0.00000000000000000e+00 0.00000000000000000e+00 4 1 1 0.00000000000000000e+00 57 1 0.00000000000000000e+00 0.00000000000000000e+00 0.00000000000000000e+00 0.00000000000000000e+00 4 1 1 0.00000000000000000e+00 58 1 0.00000000000000000e+00 0.00000000000000000e+00 0.00000000000000000e+00 0.00000000000000000e+00 4 1 1 0.00000000000000000e+00 59 1 0.00000000000000000e+00 0.00000000000000000e+00 0.00000000000000000e+00 0.00000000000000000e+00 4 1 1 0.00000000000000000e+00 60 1 0.00000000000000000e+00 0.00000000000000000e+00 0.00000000000000000e+00 0.00000000000000000e+00 4 1 1 0.00000000000000000e+00 61 1 0.00000000000000000e+00 0.00000000000000000e+00 0.00000000000000000e+00 0.00000000000000000e+00 4 1 1 0.00000000000000000e+00 62 1 0.00000000000000000e+00 0.00000000000000000e+00 0.00000000000000000e+00 0.00000000000000000e+00 4 1 1 0.00000000000000000e+00 63 1 0.00000000000000000e+00 0.00000000000000000e+00 0.00000000000000000e+00 0.00000000000000000e+00 4 1 1 0.00000000000000000e+00 64 1 0.00000000000000000e+00 0.00000000000000000e+00 0.00000000000000000e+00 0.00000000000000000e+00 4 1 1 0.00000000000000000e+00 65 1 0.00000000000000000e+00 0.00000000000000000e+00 0.00000000000000000e+00 0.00000000000000000e+00 4 1 1 0.00000000000000000e+00 66 1 0.00000000000000000e+00 0.00000000000000000e+00 0.00000000000000000e+00 0.00000000000000000e+00 4 1 1 0.00000000000000000e+00 67 1 0.00000000000000000e+00 0.00000000000000000e+00 0.00000000000000000e+00 0.00000000000000000e+00 4 1 1 0.00000000000000000e+00 68 1 0.00000000000000000e+00 0.00000000000000000e+00 0.00000000000000000e+00 0.00000000000000000e+00 4 1 1 0.00000000000000000e+00 69 1 0.00000000000000000e+00 0.00000000000000000e+00 0.00000000000000000e+00 0.00000000000000000e+00 4 1 1 0.00000000000000000e+00 70 1 0.00000000000000000e+00 0.00000000000000000e+00 0.00000000000000000e+00 0.00000000000000000e+00 4 1 1 0.00000000000000000e+00 71 1 0.00000000000000000e+00 0.00000000000000000e+00 0.00000000000000000e+00 0.00000000000000000e+00 4 1 1 0.00000000000000000e+00 72 1 0.00000000000000000e+00 0.00000000000000000e+00 0.00000000000000000e+00 0.00000000000000000e+00 4 1 1 0.00000000000000000e+00 73 1 0.00000000000000000e+00 0.00000000000000000e+00 0.00000000000000000e+00 0.00000000000000000e+00 4 1 1 0.00000000000000000e+00 74 1 0.00000000000000000e+00 0.00000000000000000e+00 0.00000000000000000e+00 0.00000000000000000e+00 4 1 1 0.00000000000000000e+00 75 1 0.00000000000000000e+00 0.00000000000000000e+00 0.00000000000000000e+00 0.00000000000000000e+00 4 1 1 0.00000000000000000e+00 76 1 0.00000000000000000e+00 0.00000000000000000e+00 0.00000000000000000e+00 0.00000000000000000e+00 4 1 1 0.00000000000000000e+00 77 1 0.00000000000000000e+00 0.00000000000000000e+00 0.00000000000000000e+00 0.00000000000000000e+00 4 1 1 0.00000000000000000e+00 78 1 0.00000000000000000e+00 0.00000000000000000e+00 0.00000000000000000e+00 0.00000000000000000e+00 4 1 1 0.00000000000000000e+00 79 1 0.00000000000000000e+00 0.00000000000000000e+00 0.00000000000000000e+00 0.00000000000000000e+00 4 1 1 0.00000000000000000e+00 80 1 0.00000000000000000e+00 0.00000000000000000e+00 0.00000000000000000e+00 0.00000000000000000e+00 4 1 1 0.00000000000000000e+00 81 1 0.00000000000000000e+00 0.00000000000000000e+00 0.00000000000000000e+00 0.00000000000000000e+00 4 1 1 0.00000000000000000e+00 82 1 0.00000000000000000e+00 0.00000000000000000e+00 0.00000000000000000e+00 0.00000000000000000e+00 4 1 1 0.00000000000000000e+00 83 1 0.00000000000000000e+00 0.00000000000000000e+00 0.00000000000000000e+00 0.00000000000000000e+00 4 1 1 0.00000000000000000e+00 84 2 0.00000000000000000e+00 0.00000000000000000e+00 0.00000000000000000e+00 0.00000000000000000e+00 4 1 1 0.00000000000000000e+00 85 4 1.00000000000000000e+00 0.00000000000000000e+00 0.00000000000000000e+00 0.00000000000000000e+00 -1490102470 21867 6 1.00000000000000000e+00 89 3 1.00000000000000000e+00 0.00000000000000000e+00 0.00000000000000000e+00 0.00000000000000000e+00 128 0 1 5.00000000000000000e-01 0 0 90 0 0 0 1 85 1 0 -3.05377379292622209e-01 2 85 2 0 -4.99644827636075262e-01 3 85 3 0 1.79839491145685315e-01 4 85 4 0 3.95651570288464427e-01 5 85 5 0 -4.04406122252112255e-01 6 85 6 0 6.22287394455634191e-01 7 85 7 0 -2.23753385734744514e-01 8 85 8 0 -6.36369195324368642e-01 9 85 9 0 -2.39822506485506903e-01 10 85 10 0 2.74109117477200903e-01 11 85 11 0 4.67668542393949005e-01 12 85 12 0 -2.48701485781930409e-01 13 85 13 0 1.65389770769979849e-01 14 85 14 0 5.16362901299726063e-01 15 85 15 0 -4.56118404166772962e-01 16 85 16 0 5.25607716990634799e-01 17 85 17 0 -5.75164467492141007e-01 18 85 18 0 -1.60696103870868701e+00 19 85 19 0 -8.47489265725016594e-02 20 85 20 0 5.68188241915777326e-01 21 85 21 0 -2.72540255566127397e-02 22 85 22 0 8.19487053668125492e-02 23 85 23 0 -2.08462014776887333e-01 24 85 24 0 4.93668235919904053e-01 25 85 25 0 -4.71759458445012603e-01 26 85 26 0 -2.10943200159817934e-01 27 85 27 0 5.39166613819543228e-01 28 85 28 0 2.32748434646055102e-01 29 85 29 0 -1.45192105369642416e-01 30 85 30 0 -5.35021008341573179e-01 31 85 31 0 -9.19082530774176232e-01 32 85 32 0 -5.26206538081169128e-01 33 85 33 0 4.05883928085677415e-01 34 85 34 0 7.85784791072364874e-01 35 85 35 0 1.59629975457210166e-01 36 85 36 0 2.16614932287484407e-02 37 85 37 0 4.23055012710392475e-01 38 85 38 0 5.24514038173947372e-01 39 85 39 0 5.60180175432469674e-01 40 85 40 0 7.40125330432783834e-01 41 85 41 0 6.53132633771747351e-01 42 85 42 0 -3.14723724382929337e-01 43 85 43 0 -6.53731008293107152e-01 44 85 44 0 -5.66997568751685277e-01 45 85 45 0 1.69370289158541687e-01 46 85 46 0 -4.07959478581324309e-01 47 85 47 0 -1.46814528154209256e-01 48 85 48 0 3.79104733350686729e-01 49 85 49 0 7.60626031877472797e-01 50 85 50 0 6.21066151617560513e-01 51 85 51 0 -2.70138774067163467e-03 52 85 52 0 -7.20344619010575143e-02 53 85 53 0 -1.57580014975974358e+00 54 85 54 0 3.23545759078115225e-01 55 85 55 0 -1.36297499481588480e-01 56 85 56 0 -9.17830127326305978e-01 57 85 57 0 -1.14535229080356693e+00 58 85 58 0 -4.13502696435897737e-02 59 85 59 0 2.24256008164957166e-01 60 85 60 0 -5.70940569089725569e-01 61 85 61 0 3.82264229236170650e-01 62 85 62 0 -8.77555374987423059e-02 63 85 63 0 -4.51896107289940174e-01 64 85 64 0 -7.42649395926855305e-01 65 85 65 0 5.52982236957177520e-01 66 85 66 0 1.69401110324542997e-01 67 85 67 0 6.26880667614750697e-01 68 85 68 0 -7.06884213082958124e-01 69 85 69 0 -1.24459742452017977e-01 70 85 70 0 -9.14967703004367472e-01 71 85 71 0 -5.73768759053200461e-01 72 85 72 0 4.10105018876492977e-01 73 85 73 0 5.01095051877200603e-02 74 85 74 0 -1.76737119478639210e-01 76 85 76 0 -5.01330959131882969e-01 77 85 77 0 -1.47788878383580613e+00 78 85 78 0 3.82563520688565181e-03 79 85 79 0 6.00007531233131886e-01 80 85 80 0 6.79032580461353064e-01 81 85 81 0 -6.43177085649222047e-01 82 85 82 0 -8.83109554660040819e-01 83 85 83 0 -6.15177111467346410e-02 84 85 84 0 7.82607679720967626e-03 75 89 110 0 -3.90461428090929985e-01 89 85 111 0 4.10659696441143529e-02 31 89 124 0 3.15119387744925983e-01 19 89 152 0 7.76062617078423968e-03 65 89 159 0 -1.61815741797909141e-01 82 89 170 0 3.80644835438579299e-01 50 89 172 0 -1.02870302507653832e-01 84 1 0.00000000000000000e+00 0.00000000000000000e+00 0 0.00000000000000000e+00 0'
p2
b.