(lp0
cMultiNEAT._MultiNEAT
Genome
p1
(tRp2
S'22 serialization::archive 14 0 0 501 0 0 7 0 0 0 1 1 0.00000000000000000e+00 0.00000000000000000e+00 0.00000000000000000e+00 0.00000000000000000e+00 0 1 1 0.00000000000000000e+00 2 1 0.00000000000000000e+00 0.00000000000000000e+00 0.00000000000000000e+00 0.00000000000000000e+00 0 1 1 0.00000000000000000e+00 3 1 0.00000000000000000e+00 0.00000000000000000e+00 0.00000000000000000e+00 0.00000000000000000e+00 0 1 1 0.00000000000000000e+00 4 1 0.00000000000000000e+00 0.00000000000000000e+00 0.00000000000000000e+00 0.00000000000000000e+00 0 1 1 0.00000000000000000e+00 5 2 0.00000000000000000e+00 0.00000000000000000e+00 0.00000000000000000e+00 0.00000000000000000e+00 0 1 1 0.00000000000000000e+00 6 4 1.00000000000000000e+00 0.00000000000000000e+00 0.00000000000000000e+00 0.00000000000000000e+00 -694896838 21903 1 1.00000000000000000e+00 7 4 1.00000000000000000e+00 0.00000000000000000e+00 0.00000000000000000e+00 0.00000000000000000e+00 -694896838 21903 1 1.00000000000000000e+00 0 0 10 0 0 0 1 6 1 0 5.44348013011040188e-01 2 6 2 0 3.33608768647536635e-01 3 6 3 0 5.40860607719514497e-01 4 6 4 0 -1.08765614416915929e-01 5 6 5 0 8.65060888696461916e-01 1 7 6 0 -4.61658139759674679e-01 2 7 7 0 -5.30807512806495740e-01 3 7 8 0 1.29590480396291285e-01 4 7 9 0 2.37053913064301014e-01 5 7 10 0 2.52865991984435823e-01 5 2 0.00000000000000000e+00 0.00000000000000000e+00 0 0.00000000000000000e+00 0'
p3
bag1
(tRp4
S'22 serialization::archive 14 0 0 502 0 0 7 0 0 0 1 1 0.00000000000000000e+00 0.00000000000000000e+00 0.00000000000000000e+00 0.00000000000000000e+00 0 1 1 0.00000000000000000e+00 2 1 0.00000000000000000e+00 0.00000000000000000e+00 0.00000000000000000e+00 0.00000000000000000e+00 0 1 1 0.00000000000000000e+00 3 1 0.00000000000000000e+00 0.00000000000000000e+00 0.00000000000000000e+00 0.00000000000000000e+00 0 1 1 0.00000000000000000e+00 4 1 0.00000000000000000e+00 0.00000000000000000e+00 0.00000000000000000e+00 0.00000000000000000e+00 0 1 1 0.00000000000000000e+00 5 2 0.00000000000000000e+00 0.00000000000000000e+00 0.00000000000000000e+00 0.00000000000000000e+00 0 1 1 0.00000000000000000e+00 6 4 1.00000000000000000e+00 0.00000000000000000e+00 0.00000000000000000e+00 0.00000000000000000e+00 -694896838 21903 1 1.00000000000000000e+00 7 4 1.00000000000000000e+00 0.00000000000000000e+00 0.00000000000000000e+00 0.00000000000000000e+00 -694896838 21903 1 1.00000000000000000e+00 0 0 10 0 0 0 1 6 1 0 5.44348013011040188e-01 2 6 2 0 3.33608768647536635e-01 3 6 3 0 5.40860607719514497e-01 4 6 4 0 -1.08765614416915929e-01 5 6 5 0 8.65060888696461916e-01 1 7 6 0 -4.61658139759674679e-01 2 7 7 0 -5.30807512806495740e-01 3 7 8 0 1.29590480396291285e-01 4 7 9 0 2.37053913064301014e-01 5 7 10 0 2.52865991984435823e-01 5 2 0.00000000000000000e+00 0.00000000000000000e+00 0 0.00000000000000000e+00 0'
p5
bag1
(tRp6
S'22 serialization::archive 14 0 0 503 0 0 7 0 0 0 1 1 0.00000000000000000e+00 0.00000000000000000e+00 0.00000000000000000e+00 0.00000000000000000e+00 0 1 1 0.00000000000000000e+00 2 1 0.00000000000000000e+00 0.00000000000000000e+00 0.00000000000000000e+00 0.00000000000000000e+00 0 1 1 0.00000000000000000e+00 3 1 0.00000000000000000e+00 0.00000000000000000e+00 0.00000000000000000e+00 0.00000000000000000e+00 0 1 1 0.00000000000000000e+00 4 1 0.00000000000000000e+00 0.00000000000000000e+00 0.00000000000000000e+00 0.00000000000000000e+00 0 1 1 0.00000000000000000e+00 5 2 0.00000000000000000e+00 0.00000000000000000e+00 0.00000000000000000e+00 0.00000000000000000e+00 0 1 1 0.00000000000000000e+00 6 4 1.00000000000000000e+00 0.00000000000000000e+00 0.00000000000000000e+00 0.00000000000000000e+00 -694896838 21903 1 1.00000000000000000e+00 7 4 1.00000000000000000e+00 0.00000000000000000e+00 0.00000000000000000e+00 0.00000000000000000e+00 -694896838 21903 1 1.00000000000000000e+00 0 0 10 0 0 0 1 6 1 0 5.44348013011040188e-01 2 6 2 0 3.33608768647536635e-01 3 6 3 0 5.40860607719514497e-01 4 6 4 0 -1.08765614416915929e-01 5 6 5 0 8.65060888696461916e-01 1 7 6 0 -4.61658139759674679e-01 2 7 7 0 -5.30807512806495740e-01 3 7 8 0 1.29590480396291285e-01 4 7 9 0 2.37053913064301014e-01 5 7 10 0 2.52865991984435823e-01 5 2 0.00000000000000000e+00 0.00000000000000000e+00 0 0.00000000000000000e+00 0'
p7
bag1
(tRp8
S'22 serialization::archive 14 0 0 504 0 0 7 0 0 0 1 1 0.00000000000000000e+00 0.00000000000000000e+00 0.00000000000000000e+00 0.00000000000000000e+00 0 1 1 0.00000000000000000e+00 2 1 0.00000000000000000e+00 0.00000000000000000e+00 0.00000000000000000e+00 0.00000000000000000e+00 0 1 1 0.00000000000000000e+00 3 1 0.00000000000000000e+00 0.00000000000000000e+00 0.00000000000000000e+00 0.00000000000000000e+00 0 1 1 0.00000000000000000e+00 4 1 0.00000000000000000e+00 0.00000000000000000e+00 0.00000000000000000e+00 0.00000000000000000e+00 0 1 1 0.00000000000000000e+00 5 2 0.00000000000000000e+00 0.00000000000000000e+00 0.00000000000000000e+00 0.00000000000000000e+00 0 1 1 0.00000000000000000e+00 6 4 1.00000000000000000e+00 0.00000000000000000e+00 0.00000000000000000e+00 0.00000000000000000e+00 -694896838 21903 1 1.00000000000000000e+00 7 4 1.00000000000000000e+00 0.00000000000000000e+00 0.00000000000000000e+00 0.00000000000000000e+00 -694896838 21903 1 1.00000000000000000e+00 0 0 10 0 0 0 1 6 1 0 5.19134488917188719e-01 2 6 2 0 1.48839251557365049e-01 3 6 3 0 6.36106866842601426e-01 4 6 4 0 -1.87767113570589589e-01 5 6 5 0 8.46607443783432223e-01 1 7 6 0 -5.15393198933452368e-01 2 7 7 0 -4.83366255642613485e-01 3 7 8 0 8.19362985377665998e-02 4 7 9 0 3.32822235161438607e-01 5 7 10 0 2.70871922989317671e-01 5 2 0.00000000000000000e+00 0.00000000000000000e+00 0 0.00000000000000000e+00 0'
p9
bag1
(tRp10
S'22 serialization::archive 14 0 0 505 0 0 7 0 0 0 1 1 0.00000000000000000e+00 0.00000000000000000e+00 0.00000000000000000e+00 0.00000000000000000e+00 0 1 1 0.00000000000000000e+00 2 1 0.00000000000000000e+00 0.00000000000000000e+00 0.00000000000000000e+00 0.00000000000000000e+00 0 1 1 0.00000000000000000e+00 3 1 0.00000000000000000e+00 0.00000000000000000e+00 0.00000000000000000e+00 0.00000000000000000e+00 0 1 1 0.00000000000000000e+00 4 1 0.00000000000000000e+00 0.00000000000000000e+00 0.00000000000000000e+00 0.00000000000000000e+00 0 1 1 0.00000000000000000e+00 5 2 0.00000000000000000e+00 0.00000000000000000e+00 0.00000000000000000e+00 0.00000000000000000e+00 0 1 1 0.00000000000000000e+00 6 4 1.00000000000000000e+00 0.00000000000000000e+00 0.00000000000000000e+00 0.00000000000000000e+00 -694896838 21903 1 1.00000000000000000e+00 7 4 1.00000000000000000e+00 0.00000000000000000e+00 0.00000000000000000e+00 0.00000000000000000e+00 -694896838 21903 0 1.00000000000000000e+00 0 0 10 0 0 0 1 6 1 0 5.44348013011040188e-01 2 6 2 0 3.33608768647536635e-01 3 6 3 0 5.40860607719514497e-01 4 6 4 0 -1.08765614416915929e-01 5 6 5 0 8.65060888696461916e-01 1 7 6 0 -4.61658139759674679e-01 2 7 7 0 -5.30807512806495740e-01 3 7 8 0 1.29590480396291285e-01 4 7 9 0 2.37053913064301014e-01 5 7 10 0 2.52865991984435823e-01 5 2 0.00000000000000000e+00 0.00000000000000000e+00 0 0.00000000000000000e+00 0'
p11
bag1
(tRp12
S'22 serialization::archive 14 0 0 506 0 0 8 0 0 0 1 1 0.00000000000000000e+00 0.00000000000000000e+00 0.00000000000000000e+00 0.00000000000000000e+00 0 1 1 0.00000000000000000e+00 2 1 0.00000000000000000e+00 0.00000000000000000e+00 0.00000000000000000e+00 0.00000000000000000e+00 0 1 1 0.00000000000000000e+00 3 1 0.00000000000000000e+00 0.00000000000000000e+00 0.00000000000000000e+00 0.00000000000000000e+00 0 1 1 0.00000000000000000e+00 4 1 0.00000000000000000e+00 0.00000000000000000e+00 0.00000000000000000e+00 0.00000000000000000e+00 0 1 1 0.00000000000000000e+00 5 2 0.00000000000000000e+00 0.00000000000000000e+00 0.00000000000000000e+00 0.00000000000000000e+00 0 1 1 0.00000000000000000e+00 6 4 1.00000000000000000e+00 0.00000000000000000e+00 0.00000000000000000e+00 0.00000000000000000e+00 -694896838 21903 1 1.00000000000000000e+00 7 4 1.00000000000000000e+00 0.00000000000000000e+00 0.00000000000000000e+00 0.00000000000000000e+00 -694896838 21903 1 1.00000000000000000e+00 8 3 1.00000000000000000e+00 0.00000000000000000e+00 0.00000000000000000e+00 0.00000000000000000e+00 128 0 3 5.00000000000000000e-01 0 0 11 0 0 0 2 6 2 0 7.15519775985745568e-04 3 6 3 0 -8.86047927709296301e-01 4 6 4 0 -1.03463467734400197e-01 5 6 5 0 -6.19714827038114979e-01 1 7 6 0 -9.19919254141859932e-02 2 7 7 0 -6.03454214421799362e-01 3 7 8 0 1.54803658142918715e-01 4 7 9 0 -3.23232132598059274e-01 5 7 10 0 3.59957418404519613e-01 1 8 12 0 1.09693636978045114e-01 8 6 13 0 7.60599391889991261e-01 5 2 0.00000000000000000e+00 0.00000000000000000e+00 0 0.00000000000000000e+00 0'
p13
bag1
(tRp14
S'22 serialization::archive 14 0 0 507 0 0 8 0 0 0 1 1 0.00000000000000000e+00 0.00000000000000000e+00 0.00000000000000000e+00 0.00000000000000000e+00 0 1 1 0.00000000000000000e+00 2 1 0.00000000000000000e+00 0.00000000000000000e+00 0.00000000000000000e+00 0.00000000000000000e+00 0 1 1 0.00000000000000000e+00 3 1 0.00000000000000000e+00 0.00000000000000000e+00 0.00000000000000000e+00 0.00000000000000000e+00 0 1 1 0.00000000000000000e+00 4 1 0.00000000000000000e+00 0.00000000000000000e+00 0.00000000000000000e+00 0.00000000000000000e+00 0 1 1 0.00000000000000000e+00 5 2 0.00000000000000000e+00 0.00000000000000000e+00 0.00000000000000000e+00 0.00000000000000000e+00 0 1 1 0.00000000000000000e+00 6 4 1.00000000000000000e+00 0.00000000000000000e+00 0.00000000000000000e+00 0.00000000000000000e+00 -694896838 21903 1 1.00000000000000000e+00 7 4 1.00000000000000000e+00 0.00000000000000000e+00 0.00000000000000000e+00 0.00000000000000000e+00 -694896838 21903 1 1.00000000000000000e+00 8 3 1.00000000000000000e+00 0.00000000000000000e+00 0.00000000000000000e+00 0.00000000000000000e+00 128 0 3 5.00000000000000000e-01 0 0 11 0 0 0 2 6 2 0 -1.75745080603519413e-02 3 6 3 0 -7.23036670871078924e-01 4 6 4 0 -4.32229668949730833e-02 5 6 5 0 -5.45929404994240142e-01 1 7 6 0 -9.43905164836906091e-02 2 7 7 0 -6.03608410473680079e-01 3 7 8 0 1.96346698940033093e-01 4 7 9 0 -1.76244695280911412e-01 5 7 10 0 3.85191969759762332e-01 1 8 12 0 1.20779850101098429e-01 8 6 13 0 6.83076483552576996e-01 5 2 0.00000000000000000e+00 0.00000000000000000e+00 0 0.00000000000000000e+00 0'
p15
bag1
(tRp16
S'22 serialization::archive 14 0 0 508 0 0 8 0 0 0 1 1 0.00000000000000000e+00 0.00000000000000000e+00 0.00000000000000000e+00 0.00000000000000000e+00 0 1 1 0.00000000000000000e+00 2 1 0.00000000000000000e+00 0.00000000000000000e+00 0.00000000000000000e+00 0.00000000000000000e+00 0 1 1 0.00000000000000000e+00 3 1 0.00000000000000000e+00 0.00000000000000000e+00 0.00000000000000000e+00 0.00000000000000000e+00 0 1 1 0.00000000000000000e+00 4 1 0.00000000000000000e+00 0.00000000000000000e+00 0.00000000000000000e+00 0.00000000000000000e+00 0 1 1 0.00000000000000000e+00 5 2 0.00000000000000000e+00 0.00000000000000000e+00 0.00000000000000000e+00 0.00000000000000000e+00 0 1 1 0.00000000000000000e+00 6 4 1.00000000000000000e+00 0.00000000000000000e+00 0.00000000000000000e+00 0.00000000000000000e+00 -694896838 21903 1 1.00000000000000000e+00 7 4 1.00000000000000000e+00 0.00000000000000000e+00 0.00000000000000000e+00 0.00000000000000000e+00 -694896838 21903 1 1.00000000000000000e+00 8 3 1.00000000000000000e+00 0.00000000000000000e+00 0.00000000000000000e+00 0.00000000000000000e+00 128 0 3 5.00000000000000000e-01 0 0 11 0 0 0 2 6 2 0 -9.67023828910896499e-02 3 6 3 0 -8.86047927709296301e-01 4 6 4 0 -1.03463467734400197e-01 5 6 5 0 -6.08902524359291486e-01 1 7 6 0 -9.19919254141859932e-02 2 7 7 0 -6.03454214421799362e-01 3 7 8 0 1.54803658142918715e-01 4 7 9 0 -2.13497368135722371e-01 5 7 10 0 4.77073129173368304e-01 1 8 12 0 2.34963661339133989e-01 8 6 13 0 7.60599391889991261e-01 5 2 0.00000000000000000e+00 0.00000000000000000e+00 0 0.00000000000000000e+00 0'
p17
bag1
(tRp18
S'22 serialization::archive 14 0 0 509 0 0 8 0 0 0 1 1 0.00000000000000000e+00 0.00000000000000000e+00 0.00000000000000000e+00 0.00000000000000000e+00 4 1 1 0.00000000000000000e+00 2 1 0.00000000000000000e+00 0.00000000000000000e+00 0.00000000000000000e+00 0.00000000000000000e+00 4 1 1 0.00000000000000000e+00 3 1 0.00000000000000000e+00 0.00000000000000000e+00 0.00000000000000000e+00 0.00000000000000000e+00 4 1 1 0.00000000000000000e+00 4 1 0.00000000000000000e+00 0.00000000000000000e+00 0.00000000000000000e+00 0.00000000000000000e+00 4 1 1 0.00000000000000000e+00 5 2 0.00000000000000000e+00 0.00000000000000000e+00 0.00000000000000000e+00 0.00000000000000000e+00 4 1 1 0.00000000000000000e+00 6 4 1.00000000000000000e+00 0.00000000000000000e+00 0.00000000000000000e+00 0.00000000000000000e+00 -694896838 21903 1 1.00000000000000000e+00 7 4 1.00000000000000000e+00 0.00000000000000000e+00 0.00000000000000000e+00 0.00000000000000000e+00 -694896838 21903 1 1.00000000000000000e+00 8 3 1.00000000000000000e+00 0.00000000000000000e+00 0.00000000000000000e+00 0.00000000000000000e+00 128 0 3 5.00000000000000000e-01 0 0 11 0 0 0 2 6 2 0 3.05991113273194129e-02 3 6 3 0 -6.23675174918025710e-01 4 6 4 0 -2.72445900097955052e-01 5 6 5 0 -5.47115050576394535e-01 1 7 6 0 3.81283225142396709e-02 2 7 7 0 -5.27251773182069838e-01 3 7 8 0 1.28332591062644497e-01 4 7 9 0 -2.34882396069588162e-01 5 7 10 0 3.92263922095298811e-01 1 8 12 0 9.02480547316372450e-02 8 6 13 0 7.68841117090778403e-01 5 2 0.00000000000000000e+00 0.00000000000000000e+00 0 0.00000000000000000e+00 0'
p19
bag1
(tRp20
S'22 serialization::archive 14 0 0 510 0 0 8 0 0 0 1 1 0.00000000000000000e+00 0.00000000000000000e+00 0.00000000000000000e+00 0.00000000000000000e+00 0 1 1 0.00000000000000000e+00 2 1 0.00000000000000000e+00 0.00000000000000000e+00 0.00000000000000000e+00 0.00000000000000000e+00 0 1 1 0.00000000000000000e+00 3 1 0.00000000000000000e+00 0.00000000000000000e+00 0.00000000000000000e+00 0.00000000000000000e+00 0 1 1 0.00000000000000000e+00 4 1 0.00000000000000000e+00 0.00000000000000000e+00 0.00000000000000000e+00 0.00000000000000000e+00 0 1 1 0.00000000000000000e+00 5 2 0.00000000000000000e+00 0.00000000000000000e+00 0.00000000000000000e+00 0.00000000000000000e+00 0 1 1 0.00000000000000000e+00 6 4 1.00000000000000000e+00 0.00000000000000000e+00 0.00000000000000000e+00 0.00000000000000000e+00 -694896838 21903 1 1.00000000000000000e+00 7 4 1.00000000000000000e+00 0.00000000000000000e+00 0.00000000000000000e+00 0.00000000000000000e+00 -694896838 21903 4 1.00000000000000000e+00 8 3 1.00000000000000000e+00 0.00000000000000000e+00 0.00000000000000000e+00 0.00000000000000000e+00 128 0 3 5.00000000000000000e-01 0 0 11 0 0 0 2 6 2 0 7.15519775985745568e-04 3 6 3 0 -8.86047927709296301e-01 4 6 4 0 -1.03463467734400197e-01 5 6 5 0 -6.19714827038114979e-01 1 7 6 0 -9.19919254141859932e-02 2 7 7 0 -4.92562050878768753e-01 3 7 8 0 -1.97142202348914060e-02 4 7 9 0 -3.23232132598059274e-01 5 7 10 0 3.59957418404519613e-01 1 8 12 0 1.09693636978045114e-01 8 6 13 0 7.60599391889991261e-01 5 2 0.00000000000000000e+00 0.00000000000000000e+00 0 0.00000000000000000e+00 0'
p21
bag1
(tRp22
S'22 serialization::archive 14 0 0 511 0 0 9 0 0 0 1 1 0.00000000000000000e+00 0.00000000000000000e+00 0.00000000000000000e+00 0.00000000000000000e+00 4 1 1 0.00000000000000000e+00 2 1 0.00000000000000000e+00 0.00000000000000000e+00 0.00000000000000000e+00 0.00000000000000000e+00 4 1 1 0.00000000000000000e+00 3 1 0.00000000000000000e+00 0.00000000000000000e+00 0.00000000000000000e+00 0.00000000000000000e+00 4 1 1 0.00000000000000000e+00 4 1 0.00000000000000000e+00 0.00000000000000000e+00 0.00000000000000000e+00 0.00000000000000000e+00 4 1 1 0.00000000000000000e+00 5 2 0.00000000000000000e+00 0.00000000000000000e+00 0.00000000000000000e+00 0.00000000000000000e+00 4 1 1 0.00000000000000000e+00 6 4 1.00000000000000000e+00 0.00000000000000000e+00 0.00000000000000000e+00 0.00000000000000000e+00 -694896838 21903 1 1.00000000000000000e+00 7 4 1.00000000000000000e+00 0.00000000000000000e+00 0.00000000000000000e+00 0.00000000000000000e+00 -694896838 21903 1 1.00000000000000000e+00 8 3 1.00000000000000000e+00 0.00000000000000000e+00 0.00000000000000000e+00 0.00000000000000000e+00 128 0 3 5.00000000000000000e-01 10 3 1.00000000000000000e+00 0.00000000000000000e+00 0.00000000000000000e+00 0.00000000000000000e+00 128 0 3 5.00000000000000000e-01 0 0 12 0 0 0 2 6 2 0 3.54010430717608057e-02 3 6 3 0 -8.02480962639674500e-01 5 6 5 0 -6.58739410288399108e-01 1 7 6 0 1.76315540552604955e-01 2 7 7 0 -5.81733886239817366e-01 3 7 8 0 -3.47937695158179947e-02 4 7 9 0 -3.61119896668242291e-01 5 7 10 0 4.88920752238482303e-01 1 8 12 0 -3.77150452230125693e-02 8 6 13 0 7.27899635193171024e-01 4 10 18 0 9.17880200175568484e-01 10 6 19 0 -7.30663025402464028e-02 5 2 0.00000000000000000e+00 0.00000000000000000e+00 0 0.00000000000000000e+00 0'
p23
bag1
(tRp24
S'22 serialization::archive 14 0 0 512 0 0 9 0 0 0 1 1 0.00000000000000000e+00 0.00000000000000000e+00 0.00000000000000000e+00 0.00000000000000000e+00 4 1 1 0.00000000000000000e+00 2 1 0.00000000000000000e+00 0.00000000000000000e+00 0.00000000000000000e+00 0.00000000000000000e+00 4 1 1 0.00000000000000000e+00 3 1 0.00000000000000000e+00 0.00000000000000000e+00 0.00000000000000000e+00 0.00000000000000000e+00 4 1 1 0.00000000000000000e+00 4 1 0.00000000000000000e+00 0.00000000000000000e+00 0.00000000000000000e+00 0.00000000000000000e+00 4 1 1 0.00000000000000000e+00 5 2 0.00000000000000000e+00 0.00000000000000000e+00 0.00000000000000000e+00 0.00000000000000000e+00 4 1 1 0.00000000000000000e+00 6 4 1.00000000000000000e+00 0.00000000000000000e+00 0.00000000000000000e+00 0.00000000000000000e+00 -694896838 21903 1 1.00000000000000000e+00 7 4 1.00000000000000000e+00 0.00000000000000000e+00 0.00000000000000000e+00 0.00000000000000000e+00 -694896838 21903 1 1.00000000000000000e+00 8 3 1.00000000000000000e+00 0.00000000000000000e+00 0.00000000000000000e+00 0.00000000000000000e+00 128 0 3 5.00000000000000000e-01 10 3 1.00000000000000000e+00 0.00000000000000000e+00 0.00000000000000000e+00 0.00000000000000000e+00 128 0 3 5.00000000000000000e-01 0 0 12 0 0 0 2 6 2 0 3.54010430717608057e-02 3 6 3 0 -8.02480962639674500e-01 5 6 5 0 -6.58739410288399108e-01 1 7 6 0 1.76315540552604955e-01 2 7 7 0 -5.81733886239817366e-01 3 7 8 0 -3.47937695158179947e-02 4 7 9 0 -3.61119896668242291e-01 5 7 10 0 4.88920752238482303e-01 1 8 12 0 -3.77150452230125693e-02 8 6 13 0 7.27899635193171024e-01 4 10 18 0 9.17880200175568484e-01 10 6 19 0 -7.30663025402464028e-02 5 2 0.00000000000000000e+00 0.00000000000000000e+00 0 0.00000000000000000e+00 0'
p25
bag1
(tRp26
S'22 serialization::archive 14 0 0 513 0 0 9 0 0 0 1 1 0.00000000000000000e+00 0.00000000000000000e+00 0.00000000000000000e+00 0.00000000000000000e+00 4 1 1 0.00000000000000000e+00 2 1 0.00000000000000000e+00 0.00000000000000000e+00 0.00000000000000000e+00 0.00000000000000000e+00 4 1 1 0.00000000000000000e+00 3 1 0.00000000000000000e+00 0.00000000000000000e+00 0.00000000000000000e+00 0.00000000000000000e+00 4 1 1 0.00000000000000000e+00 4 1 0.00000000000000000e+00 0.00000000000000000e+00 0.00000000000000000e+00 0.00000000000000000e+00 4 1 1 0.00000000000000000e+00 5 2 0.00000000000000000e+00 0.00000000000000000e+00 0.00000000000000000e+00 0.00000000000000000e+00 4 1 1 0.00000000000000000e+00 6 4 1.00000000000000000e+00 0.00000000000000000e+00 0.00000000000000000e+00 0.00000000000000000e+00 -694896838 21903 1 1.00000000000000000e+00 7 4 1.00000000000000000e+00 0.00000000000000000e+00 0.00000000000000000e+00 0.00000000000000000e+00 -694896838 21903 1 1.00000000000000000e+00 8 3 1.00000000000000000e+00 0.00000000000000000e+00 0.00000000000000000e+00 0.00000000000000000e+00 128 0 3 5.00000000000000000e-01 10 3 1.00000000000000000e+00 0.00000000000000000e+00 0.00000000000000000e+00 0.00000000000000000e+00 128 0 3 5.00000000000000000e-01 0 0 12 0 0 0 2 6 2 0 -6.88068161165574510e-02 3 6 3 0 -8.11832634545862630e-01 5 6 5 0 -6.45225266268244058e-01 1 7 6 0 2.24974575929809378e-01 2 7 7 0 -6.26450983242830217e-01 3 7 8 0 1.09597680304432288e-01 4 7 9 0 -4.32477202155860163e-01 5 7 10 0 3.48527672933414634e-01 1 8 12 0 -9.53003152273595444e-02 8 6 13 0 7.00410861783893779e-01 4 10 18 0 7.71870252862572714e-01 10 6 19 0 -3.75392546528019039e-02 5 2 0.00000000000000000e+00 0.00000000000000000e+00 0 0.00000000000000000e+00 0'
p27
bag1
(tRp28
S'22 serialization::archive 14 0 0 514 0 0 9 0 0 0 1 1 0.00000000000000000e+00 0.00000000000000000e+00 0.00000000000000000e+00 0.00000000000000000e+00 4 1 1 0.00000000000000000e+00 2 1 0.00000000000000000e+00 0.00000000000000000e+00 0.00000000000000000e+00 0.00000000000000000e+00 4 1 1 0.00000000000000000e+00 3 1 0.00000000000000000e+00 0.00000000000000000e+00 0.00000000000000000e+00 0.00000000000000000e+00 4 1 1 0.00000000000000000e+00 4 1 0.00000000000000000e+00 0.00000000000000000e+00 0.00000000000000000e+00 0.00000000000000000e+00 4 1 1 0.00000000000000000e+00 5 2 0.00000000000000000e+00 0.00000000000000000e+00 0.00000000000000000e+00 0.00000000000000000e+00 4 1 1 0.00000000000000000e+00 6 4 1.00000000000000000e+00 0.00000000000000000e+00 0.00000000000000000e+00 0.00000000000000000e+00 -694896838 21903 1 1.00000000000000000e+00 7 4 1.00000000000000000e+00 0.00000000000000000e+00 0.00000000000000000e+00 0.00000000000000000e+00 -694896838 21903 1 1.00000000000000000e+00 8 3 1.00000000000000000e+00 0.00000000000000000e+00 0.00000000000000000e+00 0.00000000000000000e+00 128 0 3 5.00000000000000000e-01 10 3 1.00000000000000000e+00 0.00000000000000000e+00 0.00000000000000000e+00 0.00000000000000000e+00 128 0 3 5.00000000000000000e-01 0 0 12 0 0 0 2 6 2 0 3.54010430717608057e-02 3 6 3 0 -8.02480962639674500e-01 5 6 5 0 -6.58739410288399108e-01 1 7 6 0 1.76315540552604955e-01 2 7 7 0 -5.81733886239817366e-01 3 7 8 0 -3.47937695158179947e-02 4 7 9 0 -3.61119896668242291e-01 5 7 10 0 4.88920752238482303e-01 1 8 12 0 -3.77150452230125693e-02 8 6 13 0 7.27899635193171024e-01 4 10 18 0 9.17880200175568484e-01 10 6 19 0 -7.30663025402464028e-02 5 2 0.00000000000000000e+00 0.00000000000000000e+00 0 0.00000000000000000e+00 0'
p29
bag1
(tRp30
S'22 serialization::archive 14 0 0 515 0 0 9 0 0 0 1 1 0.00000000000000000e+00 0.00000000000000000e+00 0.00000000000000000e+00 0.00000000000000000e+00 4 1 1 0.00000000000000000e+00 2 1 0.00000000000000000e+00 0.00000000000000000e+00 0.00000000000000000e+00 0.00000000000000000e+00 4 1 1 0.00000000000000000e+00 3 1 0.00000000000000000e+00 0.00000000000000000e+00 0.00000000000000000e+00 0.00000000000000000e+00 4 1 1 0.00000000000000000e+00 4 1 0.00000000000000000e+00 0.00000000000000000e+00 0.00000000000000000e+00 0.00000000000000000e+00 4 1 1 0.00000000000000000e+00 5 2 0.00000000000000000e+00 0.00000000000000000e+00 0.00000000000000000e+00 0.00000000000000000e+00 4 1 1 0.00000000000000000e+00 6 4 1.00000000000000000e+00 0.00000000000000000e+00 0.00000000000000000e+00 0.00000000000000000e+00 -694896838 21903 1 1.00000000000000000e+00 7 4 1.00000000000000000e+00 0.00000000000000000e+00 0.00000000000000000e+00 0.00000000000000000e+00 -694896838 21903 1 1.00000000000000000e+00 8 3 1.00000000000000000e+00 0.00000000000000000e+00 0.00000000000000000e+00 0.00000000000000000e+00 128 0 3 5.00000000000000000e-01 10 3 1.00000000000000000e+00 0.00000000000000000e+00 0.00000000000000000e+00 0.00000000000000000e+00 128 0 3 5.00000000000000000e-01 0 0 12 0 0 0 2 6 2 0 2.23119273869087989e-02 3 6 3 0 -7.76893093157559611e-01 5 6 5 0 -6.54071915469830900e-01 1 7 6 0 1.15655417356174434e-01 2 7 7 0 -5.30769369885092601e-01 3 7 8 0 -2.72539948753547021e-02 4 7 9 0 -3.46143068309174851e-01 5 7 10 0 5.10949285468086600e-01 1 8 12 0 -2.29139493079856052e-02 8 6 13 0 7.09074759884970263e-01 4 10 18 0 9.58940100087784186e-01 10 6 19 0 -2.95154360239394016e-02 5 2 0.00000000000000000e+00 0.00000000000000000e+00 0 0.00000000000000000e+00 0'
p31
bag1
(tRp32
S'22 serialization::archive 14 0 0 516 0 0 9 0 0 0 1 1 0.00000000000000000e+00 0.00000000000000000e+00 0.00000000000000000e+00 0.00000000000000000e+00 4 1 1 0.00000000000000000e+00 2 1 0.00000000000000000e+00 0.00000000000000000e+00 0.00000000000000000e+00 0.00000000000000000e+00 4 1 1 0.00000000000000000e+00 3 1 0.00000000000000000e+00 0.00000000000000000e+00 0.00000000000000000e+00 0.00000000000000000e+00 4 1 1 0.00000000000000000e+00 4 1 0.00000000000000000e+00 0.00000000000000000e+00 0.00000000000000000e+00 0.00000000000000000e+00 4 1 1 0.00000000000000000e+00 5 2 0.00000000000000000e+00 0.00000000000000000e+00 0.00000000000000000e+00 0.00000000000000000e+00 4 1 1 0.00000000000000000e+00 6 4 1.00000000000000000e+00 0.00000000000000000e+00 0.00000000000000000e+00 0.00000000000000000e+00 -694896838 21903 1 1.00000000000000000e+00 7 4 1.00000000000000000e+00 0.00000000000000000e+00 0.00000000000000000e+00 0.00000000000000000e+00 -694896838 21903 1 1.00000000000000000e+00 8 3 1.00000000000000000e+00 0.00000000000000000e+00 0.00000000000000000e+00 0.00000000000000000e+00 128 0 3 5.00000000000000000e-01 9 3 1.00000000000000000e+00 0.00000000000000000e+00 0.00000000000000000e+00 0.00000000000000000e+00 128 0 2 5.00000000000000000e-01 0 0 12 0 0 0 3 6 3 0 -5.72307105967775009e-01 4 6 4 0 -1.34263275761622947e-01 5 6 5 0 -6.49665963550796755e-01 1 7 6 0 -1.41488023416604880e-01 2 7 7 0 -4.03114998014643788e-01 3 7 8 0 2.53669472649926342e-01 4 7 9 0 -1.42458934319438429e-01 5 7 10 0 6.41146500429022104e-01 1 8 12 0 1.14847882345784447e+00 8 6 13 0 5.61862552148522987e-01 2 9 15 0 1.15636327513493598e+00 9 6 16 0 1.14608545749797508e-01 5 2 0.00000000000000000e+00 0.00000000000000000e+00 0 0.00000000000000000e+00 0'
p33
bag1
(tRp34
S'22 serialization::archive 14 0 0 517 0 0 9 0 0 0 1 1 0.00000000000000000e+00 0.00000000000000000e+00 0.00000000000000000e+00 0.00000000000000000e+00 4 1 1 0.00000000000000000e+00 2 1 0.00000000000000000e+00 0.00000000000000000e+00 0.00000000000000000e+00 0.00000000000000000e+00 4 1 1 0.00000000000000000e+00 3 1 0.00000000000000000e+00 0.00000000000000000e+00 0.00000000000000000e+00 0.00000000000000000e+00 4 1 1 0.00000000000000000e+00 4 1 0.00000000000000000e+00 0.00000000000000000e+00 0.00000000000000000e+00 0.00000000000000000e+00 4 1 1 0.00000000000000000e+00 5 2 0.00000000000000000e+00 0.00000000000000000e+00 0.00000000000000000e+00 0.00000000000000000e+00 4 1 1 0.00000000000000000e+00 6 4 1.00000000000000000e+00 0.00000000000000000e+00 0.00000000000000000e+00 0.00000000000000000e+00 -694896838 21903 1 1.00000000000000000e+00 7 4 1.00000000000000000e+00 0.00000000000000000e+00 0.00000000000000000e+00 0.00000000000000000e+00 -694896838 21903 1 1.00000000000000000e+00 8 3 1.00000000000000000e+00 0.00000000000000000e+00 0.00000000000000000e+00 0.00000000000000000e+00 128 0 3 5.00000000000000000e-01 9 3 1.00000000000000000e+00 0.00000000000000000e+00 0.00000000000000000e+00 0.00000000000000000e+00 128 0 2 5.00000000000000000e-01 0 0 13 0 0 0 2 6 2 0 5.17491779988631606e-01 3 6 3 0 -5.72307105967775009e-01 4 6 4 0 -1.34263275761622947e-01 5 6 5 0 -6.49665963550796755e-01 1 7 6 0 -1.41488023416604880e-01 2 7 7 0 -4.03114998014643788e-01 3 7 8 0 2.53669472649926342e-01 4 7 9 0 -1.42458934319438429e-01 5 7 10 0 6.41146500429022104e-01 1 8 12 0 1.14847882345784447e+00 8 6 13 0 5.61862552148522987e-01 2 9 15 0 1.15636327513493598e+00 9 6 16 0 1.14608545749797508e-01 5 2 0.00000000000000000e+00 0.00000000000000000e+00 0 0.00000000000000000e+00 0'
p35
bag1
(tRp36
S'22 serialization::archive 14 0 0 518 0 0 9 0 0 0 1 1 0.00000000000000000e+00 0.00000000000000000e+00 0.00000000000000000e+00 0.00000000000000000e+00 4 1 1 0.00000000000000000e+00 2 1 0.00000000000000000e+00 0.00000000000000000e+00 0.00000000000000000e+00 0.00000000000000000e+00 4 1 1 0.00000000000000000e+00 3 1 0.00000000000000000e+00 0.00000000000000000e+00 0.00000000000000000e+00 0.00000000000000000e+00 4 1 1 0.00000000000000000e+00 4 1 0.00000000000000000e+00 0.00000000000000000e+00 0.00000000000000000e+00 0.00000000000000000e+00 4 1 1 0.00000000000000000e+00 5 2 0.00000000000000000e+00 0.00000000000000000e+00 0.00000000000000000e+00 0.00000000000000000e+00 4 1 1 0.00000000000000000e+00 6 4 1.00000000000000000e+00 0.00000000000000000e+00 0.00000000000000000e+00 0.00000000000000000e+00 -694896838 21903 1 1.00000000000000000e+00 7 4 1.00000000000000000e+00 0.00000000000000000e+00 0.00000000000000000e+00 0.00000000000000000e+00 -694896838 21903 1 1.00000000000000000e+00 8 3 1.00000000000000000e+00 0.00000000000000000e+00 0.00000000000000000e+00 0.00000000000000000e+00 128 0 3 5.00000000000000000e-01 9 3 1.00000000000000000e+00 0.00000000000000000e+00 0.00000000000000000e+00 0.00000000000000000e+00 128 0 2 5.00000000000000000e-01 0 0 12 0 0 0 3 6 3 0 -5.92403733683750100e-01 4 6 4 0 1.04520602966658733e-02 5 6 5 0 -5.68515333248069576e-01 1 7 6 0 -1.36563515278976449e-01 2 7 7 0 -5.61005326313897990e-01 3 7 8 0 3.27569262083852675e-01 4 7 9 0 -2.70972220163093913e-01 5 7 10 0 5.65382694007712350e-01 1 8 12 0 1.14436350942123677e+00 8 6 13 0 5.55463118042098580e-01 2 9 15 0 1.19245404936373234e+00 9 6 16 0 2.01770406923606094e-01 5 2 0.00000000000000000e+00 0.00000000000000000e+00 0 0.00000000000000000e+00 0'
p37
bag1
(tRp38
S'22 serialization::archive 14 0 0 519 0 0 9 0 0 0 1 1 0.00000000000000000e+00 0.00000000000000000e+00 0.00000000000000000e+00 0.00000000000000000e+00 0 1 1 0.00000000000000000e+00 2 1 0.00000000000000000e+00 0.00000000000000000e+00 0.00000000000000000e+00 0.00000000000000000e+00 0 1 1 0.00000000000000000e+00 3 1 0.00000000000000000e+00 0.00000000000000000e+00 0.00000000000000000e+00 0.00000000000000000e+00 0 1 1 0.00000000000000000e+00 4 1 0.00000000000000000e+00 0.00000000000000000e+00 0.00000000000000000e+00 0.00000000000000000e+00 0 1 1 0.00000000000000000e+00 5 2 0.00000000000000000e+00 0.00000000000000000e+00 0.00000000000000000e+00 0.00000000000000000e+00 0 1 1 0.00000000000000000e+00 6 4 1.00000000000000000e+00 0.00000000000000000e+00 0.00000000000000000e+00 0.00000000000000000e+00 -694896838 21903 1 1.00000000000000000e+00 7 4 1.00000000000000000e+00 0.00000000000000000e+00 0.00000000000000000e+00 0.00000000000000000e+00 -694896838 21903 1 1.00000000000000000e+00 8 3 1.00000000000000000e+00 0.00000000000000000e+00 0.00000000000000000e+00 0.00000000000000000e+00 128 0 3 5.00000000000000000e-01 9 3 1.00000000000000000e+00 0.00000000000000000e+00 0.00000000000000000e+00 0.00000000000000000e+00 128 0 2 5.00000000000000000e-01 0 0 12 0 0 0 3 6 3 0 -5.72307105967775009e-01 4 6 4 0 -1.34263275761622947e-01 5 6 5 0 -6.04724329937016636e-01 1 7 6 0 -1.36411928746383665e-01 2 7 7 0 -6.94632222218206086e-01 3 7 8 0 2.53669472649926342e-01 4 7 9 0 -1.42458934319438429e-01 5 7 10 0 5.50156077390420273e-01 1 8 12 0 1.14847882345784447e+00 8 6 13 0 5.61862552148522987e-01 2 9 15 0 1.12500297657679771e+00 9 6 16 0 1.67677868026657989e-01 5 2 0.00000000000000000e+00 0.00000000000000000e+00 0 0.00000000000000000e+00 0'
p39
bag1
(tRp40
S'22 serialization::archive 14 0 0 520 0 0 9 0 0 0 1 1 0.00000000000000000e+00 0.00000000000000000e+00 0.00000000000000000e+00 0.00000000000000000e+00 4 1 1 0.00000000000000000e+00 2 1 0.00000000000000000e+00 0.00000000000000000e+00 0.00000000000000000e+00 0.00000000000000000e+00 4 1 1 0.00000000000000000e+00 3 1 0.00000000000000000e+00 0.00000000000000000e+00 0.00000000000000000e+00 0.00000000000000000e+00 4 1 1 0.00000000000000000e+00 4 1 0.00000000000000000e+00 0.00000000000000000e+00 0.00000000000000000e+00 0.00000000000000000e+00 4 1 1 0.00000000000000000e+00 5 2 0.00000000000000000e+00 0.00000000000000000e+00 0.00000000000000000e+00 0.00000000000000000e+00 4 1 1 0.00000000000000000e+00 6 4 1.00000000000000000e+00 0.00000000000000000e+00 0.00000000000000000e+00 0.00000000000000000e+00 -694896838 21903 1 1.00000000000000000e+00 7 4 1.00000000000000000e+00 0.00000000000000000e+00 0.00000000000000000e+00 0.00000000000000000e+00 -694896838 21903 1 1.00000000000000000e+00 8 3 1.00000000000000000e+00 0.00000000000000000e+00 0.00000000000000000e+00 0.00000000000000000e+00 128 0 3 5.00000000000000000e-01 9 3 1.00000000000000000e+00 0.00000000000000000e+00 0.00000000000000000e+00 0.00000000000000000e+00 128 0 2 5.00000000000000000e-01 0 0 12 0 0 0 3 6 3 0 -4.04089702945202578e-01 4 6 4 0 -2.44556774967350128e-02 5 6 5 0 -6.87339135067304596e-01 1 7 6 0 -2.08662997465606153e-04 2 7 7 0 -3.36453696852549888e-01 3 7 8 0 2.26607651734957505e-01 4 7 9 0 7.79834521817973896e-03 5 7 10 0 5.70742661340045698e-01 1 8 12 0 1.29888782289344817e+00 8 6 13 0 6.37845480284886635e-01 2 9 15 0 1.05849127755500372e+00 9 6 16 0 2.30464178705005934e-01 5 2 0.00000000000000000e+00 0.00000000000000000e+00 0 0.00000000000000000e+00 0'
p41
bag1
(tRp42
S'22 serialization::archive 14 0 0 521 0 0 9 0 0 0 1 1 0.00000000000000000e+00 0.00000000000000000e+00 0.00000000000000000e+00 0.00000000000000000e+00 0 1 1 0.00000000000000000e+00 2 1 0.00000000000000000e+00 0.00000000000000000e+00 0.00000000000000000e+00 0.00000000000000000e+00 0 1 1 0.00000000000000000e+00 3 1 0.00000000000000000e+00 0.00000000000000000e+00 0.00000000000000000e+00 0.00000000000000000e+00 0 1 1 0.00000000000000000e+00 4 1 0.00000000000000000e+00 0.00000000000000000e+00 0.00000000000000000e+00 0.00000000000000000e+00 0 1 1 0.00000000000000000e+00 5 2 0.00000000000000000e+00 0.00000000000000000e+00 0.00000000000000000e+00 0.00000000000000000e+00 0 1 1 0.00000000000000000e+00 6 4 1.00000000000000000e+00 0.00000000000000000e+00 0.00000000000000000e+00 0.00000000000000000e+00 -694896838 21903 1 1.00000000000000000e+00 7 4 1.00000000000000000e+00 0.00000000000000000e+00 0.00000000000000000e+00 0.00000000000000000e+00 -694896838 21903 1 1.00000000000000000e+00 8 3 1.00000000000000000e+00 0.00000000000000000e+00 0.00000000000000000e+00 0.00000000000000000e+00 128 0 3 5.00000000000000000e-01 11 3 1.00000000000000000e+00 0.00000000000000000e+00 0.00000000000000000e+00 0.00000000000000000e+00 128 0 6 5.00000000000000000e-01 0 0 12 0 0 0 2 6 2 0 2.98045912673114810e-01 3 6 3 0 -8.50948798377066828e-01 4 6 4 0 -2.89354276761878304e-01 5 6 5 0 -6.94675473583629355e-01 1 7 6 0 -1.11618689901661156e-01 2 7 7 0 -4.45200289826607309e-01 3 7 8 0 3.08110758720431463e-02 5 7 10 0 7.93374935348401755e-01 1 8 12 0 1.19074410679750131e+00 8 6 13 0 5.46133268001722239e-01 4 11 21 0 1.09206509934738283e+00 11 7 22 0 -6.57590020273346315e-02 5 2 0.00000000000000000e+00 0.00000000000000000e+00 0 0.00000000000000000e+00 0'
p43
bag1
(tRp44
S'22 serialization::archive 14 0 0 522 0 0 9 0 0 0 1 1 0.00000000000000000e+00 0.00000000000000000e+00 0.00000000000000000e+00 0.00000000000000000e+00 4 1 1 0.00000000000000000e+00 2 1 0.00000000000000000e+00 0.00000000000000000e+00 0.00000000000000000e+00 0.00000000000000000e+00 4 1 1 0.00000000000000000e+00 3 1 0.00000000000000000e+00 0.00000000000000000e+00 0.00000000000000000e+00 0.00000000000000000e+00 4 1 1 0.00000000000000000e+00 4 1 0.00000000000000000e+00 0.00000000000000000e+00 0.00000000000000000e+00 0.00000000000000000e+00 4 1 1 0.00000000000000000e+00 5 2 0.00000000000000000e+00 0.00000000000000000e+00 0.00000000000000000e+00 0.00000000000000000e+00 4 1 1 0.00000000000000000e+00 6 4 1.00000000000000000e+00 0.00000000000000000e+00 0.00000000000000000e+00 0.00000000000000000e+00 -694896838 21903 1 1.00000000000000000e+00 7 4 1.00000000000000000e+00 0.00000000000000000e+00 0.00000000000000000e+00 0.00000000000000000e+00 -694896838 21903 1 1.00000000000000000e+00 8 3 1.00000000000000000e+00 0.00000000000000000e+00 0.00000000000000000e+00 0.00000000000000000e+00 128 0 3 5.00000000000000000e-01 11 3 1.00000000000000000e+00 0.00000000000000000e+00 0.00000000000000000e+00 0.00000000000000000e+00 128 0 6 5.00000000000000000e-01 0 0 12 0 0 0 2 6 2 0 2.98045912673114810e-01 3 6 3 0 -8.50948798377066828e-01 4 6 4 0 -2.89354276761878304e-01 5 6 5 0 -5.69678736518835604e-01 1 7 6 0 -1.11618689901661156e-01 2 7 7 0 -4.45200289826607309e-01 3 7 8 0 3.08110758720431463e-02 5 7 10 0 7.45656051018158905e-01 1 8 12 0 1.19074410679750131e+00 8 6 13 0 5.46133268001722239e-01 4 11 21 0 1.09206509934738283e+00 11 7 22 0 -6.57590020273346315e-02 5 2 0.00000000000000000e+00 0.00000000000000000e+00 0 0.00000000000000000e+00 0'
p45
bag1
(tRp46
S'22 serialization::archive 14 0 0 523 0 0 9 0 0 0 1 1 0.00000000000000000e+00 0.00000000000000000e+00 0.00000000000000000e+00 0.00000000000000000e+00 0 1 1 0.00000000000000000e+00 2 1 0.00000000000000000e+00 0.00000000000000000e+00 0.00000000000000000e+00 0.00000000000000000e+00 0 1 1 0.00000000000000000e+00 3 1 0.00000000000000000e+00 0.00000000000000000e+00 0.00000000000000000e+00 0.00000000000000000e+00 0 1 1 0.00000000000000000e+00 4 1 0.00000000000000000e+00 0.00000000000000000e+00 0.00000000000000000e+00 0.00000000000000000e+00 0 1 1 0.00000000000000000e+00 5 2 0.00000000000000000e+00 0.00000000000000000e+00 0.00000000000000000e+00 0.00000000000000000e+00 0 1 1 0.00000000000000000e+00 6 4 1.00000000000000000e+00 0.00000000000000000e+00 0.00000000000000000e+00 0.00000000000000000e+00 -694896838 21903 1 1.00000000000000000e+00 7 4 1.00000000000000000e+00 0.00000000000000000e+00 0.00000000000000000e+00 0.00000000000000000e+00 -694896838 21903 1 1.00000000000000000e+00 8 3 1.00000000000000000e+00 0.00000000000000000e+00 0.00000000000000000e+00 0.00000000000000000e+00 128 0 3 5.00000000000000000e-01 11 3 1.00000000000000000e+00 0.00000000000000000e+00 0.00000000000000000e+00 0.00000000000000000e+00 128 0 6 5.00000000000000000e-01 0 0 12 0 0 0 2 6 2 0 3.03962993677123483e-01 3 6 3 0 -7.75779843144118741e-01 4 6 4 0 -1.59932520810980361e-01 5 6 5 0 -7.68808044440811522e-01 1 7 6 0 -2.19512021064292684e-01 2 7 7 0 -4.24379519134527039e-01 3 7 8 0 -2.62208049534820358e-03 5 7 10 0 8.32383769840816967e-01 1 8 12 0 1.16021544514223929e+00 8 6 13 0 5.15663506119744874e-01 4 11 21 0 1.18200343176722522e+00 11 7 22 0 1.19236026599537758e-02 5 2 0.00000000000000000e+00 0.00000000000000000e+00 0 0.00000000000000000e+00 0'
p47
bag1
(tRp48
S'22 serialization::archive 14 0 0 524 0 0 9 0 0 0 1 1 0.00000000000000000e+00 0.00000000000000000e+00 0.00000000000000000e+00 0.00000000000000000e+00 0 1 1 0.00000000000000000e+00 2 1 0.00000000000000000e+00 0.00000000000000000e+00 0.00000000000000000e+00 0.00000000000000000e+00 0 1 1 0.00000000000000000e+00 3 1 0.00000000000000000e+00 0.00000000000000000e+00 0.00000000000000000e+00 0.00000000000000000e+00 0 1 1 0.00000000000000000e+00 4 1 0.00000000000000000e+00 0.00000000000000000e+00 0.00000000000000000e+00 0.00000000000000000e+00 0 1 1 0.00000000000000000e+00 5 2 0.00000000000000000e+00 0.00000000000000000e+00 0.00000000000000000e+00 0.00000000000000000e+00 0 1 1 0.00000000000000000e+00 6 4 1.00000000000000000e+00 0.00000000000000000e+00 0.00000000000000000e+00 0.00000000000000000e+00 -694896838 21903 1 1.00000000000000000e+00 7 4 1.00000000000000000e+00 0.00000000000000000e+00 0.00000000000000000e+00 0.00000000000000000e+00 -694896838 21903 1 1.00000000000000000e+00 8 3 1.00000000000000000e+00 0.00000000000000000e+00 0.00000000000000000e+00 0.00000000000000000e+00 128 0 3 5.00000000000000000e-01 11 3 1.00000000000000000e+00 0.00000000000000000e+00 0.00000000000000000e+00 0.00000000000000000e+00 128 0 6 5.00000000000000000e-01 0 0 13 0 0 0 2 6 2 0 2.98045912673114810e-01 3 6 3 0 -8.50948798377066828e-01 4 6 4 0 -2.89354276761878304e-01 5 6 5 0 -6.32177105051232480e-01 1 7 6 0 -1.11618689901661156e-01 2 7 7 0 -4.45200289826607309e-01 3 7 8 0 3.08110758720431463e-02 5 7 10 0 7.69515493183280386e-01 1 8 12 0 1.19074410679750131e+00 8 6 13 0 5.46133268001722239e-01 4 11 21 0 1.09206509934738283e+00 11 7 22 0 -6.57590020273346315e-02 8 11 25 0 -2.08314588293433189e-01 5 2 0.00000000000000000e+00 0.00000000000000000e+00 0 0.00000000000000000e+00 0'
p49
bag1
(tRp50
S'22 serialization::archive 14 0 0 525 0 0 9 0 0 0 1 1 0.00000000000000000e+00 0.00000000000000000e+00 0.00000000000000000e+00 0.00000000000000000e+00 4 1 1 0.00000000000000000e+00 2 1 0.00000000000000000e+00 0.00000000000000000e+00 0.00000000000000000e+00 0.00000000000000000e+00 4 1 1 0.00000000000000000e+00 3 1 0.00000000000000000e+00 0.00000000000000000e+00 0.00000000000000000e+00 0.00000000000000000e+00 4 1 1 0.00000000000000000e+00 4 1 0.00000000000000000e+00 0.00000000000000000e+00 0.00000000000000000e+00 0.00000000000000000e+00 4 1 1 0.00000000000000000e+00 5 2 0.00000000000000000e+00 0.00000000000000000e+00 0.00000000000000000e+00 0.00000000000000000e+00 4 1 1 0.00000000000000000e+00 6 4 1.00000000000000000e+00 0.00000000000000000e+00 0.00000000000000000e+00 0.00000000000000000e+00 -694896838 21903 1 1.00000000000000000e+00 7 4 1.00000000000000000e+00 0.00000000000000000e+00 0.00000000000000000e+00 0.00000000000000000e+00 -694896838 21903 1 1.00000000000000000e+00 8 3 1.00000000000000000e+00 0.00000000000000000e+00 0.00000000000000000e+00 0.00000000000000000e+00 128 0 3 5.00000000000000000e-01 11 3 1.00000000000000000e+00 0.00000000000000000e+00 0.00000000000000000e+00 0.00000000000000000e+00 128 0 6 5.00000000000000000e-01 0 0 12 0 0 0 2 6 2 0 2.98045912673114810e-01 3 6 3 0 -8.50948798377066828e-01 4 6 4 0 -2.89354276761878304e-01 5 6 5 0 -6.94675473583629355e-01 1 7 6 0 -1.11618689901661156e-01 2 7 7 0 -4.45200289826607309e-01 3 7 8 0 3.08110758720431463e-02 5 7 10 0 7.93374935348401755e-01 1 8 12 0 1.19074410679750131e+00 8 6 13 0 5.46133268001722239e-01 4 11 21 0 1.09206509934738283e+00 11 7 22 0 -6.57590020273346315e-02 5 2 0.00000000000000000e+00 0.00000000000000000e+00 0 0.00000000000000000e+00 0'
p51
ba.