(lp0
cMultiNEAT._MultiNEAT
Genome
p1
(tRp2
S'22 serialization::archive 14 0 0 500 0 0 7 0 0 0 1 1 0.00000000000000000e+00 0.00000000000000000e+00 0.00000000000000000e+00 0.00000000000000000e+00 0 1 1 0.00000000000000000e+00 2 1 0.00000000000000000e+00 0.00000000000000000e+00 0.00000000000000000e+00 0.00000000000000000e+00 0 1 1 0.00000000000000000e+00 3 1 0.00000000000000000e+00 0.00000000000000000e+00 0.00000000000000000e+00 0.00000000000000000e+00 0 1 1 0.00000000000000000e+00 4 1 0.00000000000000000e+00 0.00000000000000000e+00 0.00000000000000000e+00 0.00000000000000000e+00 0 1 1 0.00000000000000000e+00 5 2 0.00000000000000000e+00 0.00000000000000000e+00 0.00000000000000000e+00 0.00000000000000000e+00 0 1 1 0.00000000000000000e+00 6 4 1.00000000000000000e+00 0.00000000000000000e+00 0.00000000000000000e+00 0.00000000000000000e+00 -568408262 22011 8 1.00000000000000000e+00 7 4 1.00000000000000000e+00 0.00000000000000000e+00 0.00000000000000000e+00 0.00000000000000000e+00 -568408262 22011 1 1.00000000000000000e+00 0 0 10 0 0 0 1 6 1 0 3.16969389992300399e-01 2 6 2 0 8.17561155883595875e-02 3 6 3 0 -7.15463443775661290e-02 4 6 4 0 2.99443809708463848e-01 5 6 5 0 -2.82729738357011262e-01 1 7 6 0 -3.29148410703055505e-01 2 7 7 0 -2.47134478163206966e-01 3 7 8 0 -1.37361607289494730e-01 4 7 9 0 -4.56558172823861227e-02 5 7 10 0 9.14250319648999554e-02 5 2 0.00000000000000000e+00 0.00000000000000000e+00 0 0.00000000000000000e+00 0'
p3
bag1
(tRp4
S'22 serialization::archive 14 0 0 501 0 0 7 0 0 0 1 1 0.00000000000000000e+00 0.00000000000000000e+00 0.00000000000000000e+00 0.00000000000000000e+00 4 1 1 0.00000000000000000e+00 2 1 0.00000000000000000e+00 0.00000000000000000e+00 0.00000000000000000e+00 0.00000000000000000e+00 4 1 1 0.00000000000000000e+00 3 1 0.00000000000000000e+00 0.00000000000000000e+00 0.00000000000000000e+00 0.00000000000000000e+00 4 1 1 0.00000000000000000e+00 4 1 0.00000000000000000e+00 0.00000000000000000e+00 0.00000000000000000e+00 0.00000000000000000e+00 4 1 1 0.00000000000000000e+00 5 2 0.00000000000000000e+00 0.00000000000000000e+00 0.00000000000000000e+00 0.00000000000000000e+00 4 1 1 0.00000000000000000e+00 6 4 1.00000000000000000e+00 0.00000000000000000e+00 0.00000000000000000e+00 0.00000000000000000e+00 -568408262 22011 8 1.00000000000000000e+00 7 4 1.00000000000000000e+00 0.00000000000000000e+00 0.00000000000000000e+00 0.00000000000000000e+00 -568408262 22011 1 1.00000000000000000e+00 0 0 10 0 0 0 1 6 1 0 2.60959031846141443e-01 2 6 2 0 1.17071549798129171e-01 3 6 3 0 -7.15463443775661290e-02 4 6 4 0 2.24771159651572738e-01 5 6 5 0 -3.20467654371168531e-01 1 7 6 0 -3.75994996418012262e-01 2 7 7 0 -2.47134478163206966e-01 3 7 8 0 -2.42427957789914245e-02 4 7 9 0 1.07283386494964370e-01 5 7 10 0 9.14250319648999554e-02 5 2 0.00000000000000000e+00 0.00000000000000000e+00 0 0.00000000000000000e+00 0'
p5
bag1
(tRp6
S'22 serialization::archive 14 0 0 502 0 0 7 0 0 0 1 1 0.00000000000000000e+00 0.00000000000000000e+00 0.00000000000000000e+00 0.00000000000000000e+00 0 1 1 0.00000000000000000e+00 2 1 0.00000000000000000e+00 0.00000000000000000e+00 0.00000000000000000e+00 0.00000000000000000e+00 0 1 1 0.00000000000000000e+00 3 1 0.00000000000000000e+00 0.00000000000000000e+00 0.00000000000000000e+00 0.00000000000000000e+00 0 1 1 0.00000000000000000e+00 4 1 0.00000000000000000e+00 0.00000000000000000e+00 0.00000000000000000e+00 0.00000000000000000e+00 0 1 1 0.00000000000000000e+00 5 2 0.00000000000000000e+00 0.00000000000000000e+00 0.00000000000000000e+00 0.00000000000000000e+00 0 1 1 0.00000000000000000e+00 6 4 1.00000000000000000e+00 0.00000000000000000e+00 0.00000000000000000e+00 0.00000000000000000e+00 -568408262 22011 8 1.00000000000000000e+00 7 4 1.00000000000000000e+00 0.00000000000000000e+00 0.00000000000000000e+00 0.00000000000000000e+00 -568408262 22011 1 1.00000000000000000e+00 0 0 10 0 0 0 1 6 1 0 3.17437098838854570e-01 2 6 2 0 2.04305543960072167e-01 3 6 3 0 4.75696364301256905e-02 4 6 4 0 3.60455970020848226e-01 5 6 5 0 -3.55846463341731589e-01 1 7 6 0 -3.44328780681826097e-01 2 7 7 0 -7.02009153610561043e-02 3 7 8 0 -1.03687838566111176e-01 4 7 9 0 6.54369408031925670e-02 5 7 10 0 2.37927283422322944e-01 5 2 0.00000000000000000e+00 0.00000000000000000e+00 0 0.00000000000000000e+00 0'
p7
bag1
(tRp8
S'22 serialization::archive 14 0 0 503 0 0 7 0 0 0 1 1 0.00000000000000000e+00 0.00000000000000000e+00 0.00000000000000000e+00 0.00000000000000000e+00 0 1 1 0.00000000000000000e+00 2 1 0.00000000000000000e+00 0.00000000000000000e+00 0.00000000000000000e+00 0.00000000000000000e+00 0 1 1 0.00000000000000000e+00 3 1 0.00000000000000000e+00 0.00000000000000000e+00 0.00000000000000000e+00 0.00000000000000000e+00 0 1 1 0.00000000000000000e+00 4 1 0.00000000000000000e+00 0.00000000000000000e+00 0.00000000000000000e+00 0.00000000000000000e+00 0 1 1 0.00000000000000000e+00 5 2 0.00000000000000000e+00 0.00000000000000000e+00 0.00000000000000000e+00 0.00000000000000000e+00 0 1 1 0.00000000000000000e+00 6 4 1.00000000000000000e+00 0.00000000000000000e+00 0.00000000000000000e+00 0.00000000000000000e+00 -568408262 22011 8 1.00000000000000000e+00 7 4 1.00000000000000000e+00 0.00000000000000000e+00 0.00000000000000000e+00 0.00000000000000000e+00 -568408262 22011 1 1.00000000000000000e+00 0 0 10 0 0 0 1 6 1 0 2.60959031846141443e-01 2 6 2 0 8.17561155883595875e-02 3 6 3 0 -7.15463443775661290e-02 4 6 4 0 2.99443809708463848e-01 5 6 5 0 -3.20467654371168531e-01 1 7 6 0 -3.29148410703055505e-01 2 7 7 0 -2.47134478163206966e-01 3 7 8 0 -2.42427957789914245e-02 4 7 9 0 1.07283386494964370e-01 5 7 10 0 2.08846136380452657e-01 5 2 0.00000000000000000e+00 0.00000000000000000e+00 0 0.00000000000000000e+00 0'
p9
bag1
(tRp10
S'22 serialization::archive 14 0 0 504 0 0 7 0 0 0 1 1 0.00000000000000000e+00 0.00000000000000000e+00 0.00000000000000000e+00 0.00000000000000000e+00 4 1 1 0.00000000000000000e+00 2 1 0.00000000000000000e+00 0.00000000000000000e+00 0.00000000000000000e+00 0.00000000000000000e+00 4 1 1 0.00000000000000000e+00 3 1 0.00000000000000000e+00 0.00000000000000000e+00 0.00000000000000000e+00 0.00000000000000000e+00 4 1 1 0.00000000000000000e+00 4 1 0.00000000000000000e+00 0.00000000000000000e+00 0.00000000000000000e+00 0.00000000000000000e+00 4 1 1 0.00000000000000000e+00 5 2 0.00000000000000000e+00 0.00000000000000000e+00 0.00000000000000000e+00 0.00000000000000000e+00 4 1 1 0.00000000000000000e+00 6 4 1.00000000000000000e+00 0.00000000000000000e+00 0.00000000000000000e+00 0.00000000000000000e+00 -568408262 22011 8 1.00000000000000000e+00 7 4 1.00000000000000000e+00 0.00000000000000000e+00 0.00000000000000000e+00 0.00000000000000000e+00 -568408262 22011 1 1.00000000000000000e+00 0 0 10 0 0 0 1 6 1 0 2.88964210919220921e-01 2 6 2 0 9.94138326932443861e-02 3 6 3 0 -1.27376043138792749e-01 4 6 4 0 2.62107484680018321e-01 5 6 5 0 -3.01598696364089869e-01 1 7 6 0 -3.52571703560533911e-01 2 7 7 0 -2.75685686139331698e-01 3 7 8 0 -8.08022015342430844e-02 4 7 9 0 3.08137846062891234e-02 5 7 10 0 1.50135584172676306e-01 5 2 0.00000000000000000e+00 0.00000000000000000e+00 0 0.00000000000000000e+00 0'
p11
bag1
(tRp12
S'22 serialization::archive 14 0 0 505 0 0 7 0 0 0 1 1 0.00000000000000000e+00 0.00000000000000000e+00 0.00000000000000000e+00 0.00000000000000000e+00 0 1 1 0.00000000000000000e+00 2 1 0.00000000000000000e+00 0.00000000000000000e+00 0.00000000000000000e+00 0.00000000000000000e+00 0 1 1 0.00000000000000000e+00 3 1 0.00000000000000000e+00 0.00000000000000000e+00 0.00000000000000000e+00 0.00000000000000000e+00 0 1 1 0.00000000000000000e+00 4 1 0.00000000000000000e+00 0.00000000000000000e+00 0.00000000000000000e+00 0.00000000000000000e+00 0 1 1 0.00000000000000000e+00 5 2 0.00000000000000000e+00 0.00000000000000000e+00 0.00000000000000000e+00 0.00000000000000000e+00 0 1 1 0.00000000000000000e+00 6 4 1.00000000000000000e+00 0.00000000000000000e+00 0.00000000000000000e+00 0.00000000000000000e+00 -568408262 22011 8 1.00000000000000000e+00 7 4 1.00000000000000000e+00 0.00000000000000000e+00 0.00000000000000000e+00 0.00000000000000000e+00 -568408262 22011 1 1.00000000000000000e+00 0 0 10 0 0 0 1 6 1 0 3.20161321351770278e-01 2 6 2 0 2.11064063245431088e-02 3 6 3 0 -8.90678909257985596e-02 4 6 4 0 2.25774900868418504e-01 5 6 5 0 -9.04677286860533225e-02 1 7 6 0 -2.70403134461957961e-01 2 7 7 0 -4.17900997219840087e-01 3 7 8 0 -4.80669081909582019e-01 4 7 9 0 2.93737800163216878e-01 5 7 10 0 1.36744217789964734e-01 5 2 0.00000000000000000e+00 0.00000000000000000e+00 0 0.00000000000000000e+00 0'
p13
bag1
(tRp14
S'22 serialization::archive 14 0 0 506 0 0 7 0 0 0 1 1 0.00000000000000000e+00 0.00000000000000000e+00 0.00000000000000000e+00 0.00000000000000000e+00 0 1 1 0.00000000000000000e+00 2 1 0.00000000000000000e+00 0.00000000000000000e+00 0.00000000000000000e+00 0.00000000000000000e+00 0 1 1 0.00000000000000000e+00 3 1 0.00000000000000000e+00 0.00000000000000000e+00 0.00000000000000000e+00 0.00000000000000000e+00 0 1 1 0.00000000000000000e+00 4 1 0.00000000000000000e+00 0.00000000000000000e+00 0.00000000000000000e+00 0.00000000000000000e+00 0 1 1 0.00000000000000000e+00 5 2 0.00000000000000000e+00 0.00000000000000000e+00 0.00000000000000000e+00 0.00000000000000000e+00 0 1 1 0.00000000000000000e+00 6 4 1.00000000000000000e+00 0.00000000000000000e+00 0.00000000000000000e+00 0.00000000000000000e+00 -568408262 22011 8 1.00000000000000000e+00 7 4 1.00000000000000000e+00 0.00000000000000000e+00 0.00000000000000000e+00 0.00000000000000000e+00 -568408262 22011 1 1.00000000000000000e+00 0 0 10 0 0 0 1 6 1 0 3.16969389992300399e-01 2 6 2 0 8.17561155883595875e-02 3 6 3 0 -7.15463443775661290e-02 4 6 4 0 2.99443809708463848e-01 5 6 5 0 -2.82729738357011262e-01 1 7 6 0 -3.75994996418012262e-01 2 7 7 0 -3.04236894115456402e-01 3 7 8 0 -2.42427957789914245e-02 4 7 9 0 -4.56558172823861227e-02 5 7 10 0 9.14250319648999554e-02 5 2 0.00000000000000000e+00 0.00000000000000000e+00 0 0.00000000000000000e+00 0'
p15
bag1
(tRp16
S'22 serialization::archive 14 0 0 507 0 0 7 0 0 0 1 1 0.00000000000000000e+00 0.00000000000000000e+00 0.00000000000000000e+00 0.00000000000000000e+00 0 1 1 0.00000000000000000e+00 2 1 0.00000000000000000e+00 0.00000000000000000e+00 0.00000000000000000e+00 0.00000000000000000e+00 0 1 1 0.00000000000000000e+00 3 1 0.00000000000000000e+00 0.00000000000000000e+00 0.00000000000000000e+00 0.00000000000000000e+00 0 1 1 0.00000000000000000e+00 4 1 0.00000000000000000e+00 0.00000000000000000e+00 0.00000000000000000e+00 0.00000000000000000e+00 0 1 1 0.00000000000000000e+00 5 2 0.00000000000000000e+00 0.00000000000000000e+00 0.00000000000000000e+00 0.00000000000000000e+00 0 1 1 0.00000000000000000e+00 6 4 1.00000000000000000e+00 0.00000000000000000e+00 0.00000000000000000e+00 0.00000000000000000e+00 -568408262 22011 8 1.00000000000000000e+00 7 4 1.00000000000000000e+00 0.00000000000000000e+00 0.00000000000000000e+00 0.00000000000000000e+00 -568408262 22011 1 1.00000000000000000e+00 0 0 10 0 0 0 1 6 1 0 3.16969389992300399e-01 2 6 2 0 8.17561155883595875e-02 3 6 3 0 -7.15463443775661290e-02 4 6 4 0 2.24771159651572738e-01 5 6 5 0 -3.20467654371168531e-01 1 7 6 0 -3.29148410703055505e-01 2 7 7 0 -3.04236894115456402e-01 3 7 8 0 -1.37361607289494730e-01 4 7 9 0 -4.56558172823861227e-02 5 7 10 0 2.08846136380452657e-01 5 2 0.00000000000000000e+00 0.00000000000000000e+00 0 0.00000000000000000e+00 0'
p17
bag1
(tRp18
S'22 serialization::archive 14 0 0 508 0 0 7 0 0 0 1 1 0.00000000000000000e+00 0.00000000000000000e+00 0.00000000000000000e+00 0.00000000000000000e+00 4 1 1 0.00000000000000000e+00 2 1 0.00000000000000000e+00 0.00000000000000000e+00 0.00000000000000000e+00 0.00000000000000000e+00 4 1 1 0.00000000000000000e+00 3 1 0.00000000000000000e+00 0.00000000000000000e+00 0.00000000000000000e+00 0.00000000000000000e+00 4 1 1 0.00000000000000000e+00 4 1 0.00000000000000000e+00 0.00000000000000000e+00 0.00000000000000000e+00 0.00000000000000000e+00 4 1 1 0.00000000000000000e+00 5 2 0.00000000000000000e+00 0.00000000000000000e+00 0.00000000000000000e+00 0.00000000000000000e+00 4 1 1 0.00000000000000000e+00 6 4 1.00000000000000000e+00 0.00000000000000000e+00 0.00000000000000000e+00 0.00000000000000000e+00 -568408262 22011 8 1.00000000000000000e+00 7 4 1.00000000000000000e+00 0.00000000000000000e+00 0.00000000000000000e+00 0.00000000000000000e+00 -568408262 22011 1 1.00000000000000000e+00 0 0 10 0 0 0 1 6 1 0 3.16969389992300399e-01 2 6 2 0 8.17561155883595875e-02 3 6 3 0 -7.15463443775661290e-02 4 6 4 0 2.24771159651572738e-01 5 6 5 0 -2.82729738357011262e-01 1 7 6 0 -3.29148410703055505e-01 2 7 7 0 -2.47134478163206966e-01 3 7 8 0 -1.37361607289494730e-01 4 7 9 0 -4.56558172823861227e-02 5 7 10 0 2.08846136380452657e-01 5 2 0.00000000000000000e+00 0.00000000000000000e+00 0 0.00000000000000000e+00 0'
p19
bag1
(tRp20
S'22 serialization::archive 14 0 0 509 0 0 7 0 0 0 1 1 0.00000000000000000e+00 0.00000000000000000e+00 0.00000000000000000e+00 0.00000000000000000e+00 0 1 1 0.00000000000000000e+00 2 1 0.00000000000000000e+00 0.00000000000000000e+00 0.00000000000000000e+00 0.00000000000000000e+00 0 1 1 0.00000000000000000e+00 3 1 0.00000000000000000e+00 0.00000000000000000e+00 0.00000000000000000e+00 0.00000000000000000e+00 0 1 1 0.00000000000000000e+00 4 1 0.00000000000000000e+00 0.00000000000000000e+00 0.00000000000000000e+00 0.00000000000000000e+00 0 1 1 0.00000000000000000e+00 5 2 0.00000000000000000e+00 0.00000000000000000e+00 0.00000000000000000e+00 0.00000000000000000e+00 0 1 1 0.00000000000000000e+00 6 4 1.00000000000000000e+00 0.00000000000000000e+00 0.00000000000000000e+00 0.00000000000000000e+00 -568408262 22011 8 1.00000000000000000e+00 7 4 1.00000000000000000e+00 0.00000000000000000e+00 0.00000000000000000e+00 0.00000000000000000e+00 -568408262 22011 1 1.00000000000000000e+00 0 0 10 0 0 0 1 6 1 0 3.16969389992300399e-01 2 6 2 0 1.17071549798129171e-01 3 6 3 0 -1.83205741900019370e-01 4 6 4 0 2.99443809708463848e-01 5 6 5 0 -2.82729738357011262e-01 1 7 6 0 -3.29148410703055505e-01 2 7 7 0 -3.04236894115456402e-01 3 7 8 0 -1.37361607289494730e-01 4 7 9 0 1.07283386494964370e-01 5 7 10 0 9.14250319648999554e-02 5 2 0.00000000000000000e+00 0.00000000000000000e+00 0 0.00000000000000000e+00 0'
p21
bag1
(tRp22
S'22 serialization::archive 14 0 0 510 0 0 7 0 0 0 1 1 0.00000000000000000e+00 0.00000000000000000e+00 0.00000000000000000e+00 0.00000000000000000e+00 0 1 1 0.00000000000000000e+00 2 1 0.00000000000000000e+00 0.00000000000000000e+00 0.00000000000000000e+00 0.00000000000000000e+00 0 1 1 0.00000000000000000e+00 3 1 0.00000000000000000e+00 0.00000000000000000e+00 0.00000000000000000e+00 0.00000000000000000e+00 0 1 1 0.00000000000000000e+00 4 1 0.00000000000000000e+00 0.00000000000000000e+00 0.00000000000000000e+00 0.00000000000000000e+00 0 1 1 0.00000000000000000e+00 5 2 0.00000000000000000e+00 0.00000000000000000e+00 0.00000000000000000e+00 0.00000000000000000e+00 0 1 1 0.00000000000000000e+00 6 4 1.00000000000000000e+00 0.00000000000000000e+00 0.00000000000000000e+00 0.00000000000000000e+00 -568408262 22011 8 1.00000000000000000e+00 7 4 1.00000000000000000e+00 0.00000000000000000e+00 0.00000000000000000e+00 0.00000000000000000e+00 -568408262 22011 1 1.00000000000000000e+00 0 0 10 0 0 0 1 6 1 0 4.43719252583105128e-01 2 6 2 0 3.13417101977393545e-02 3 6 3 0 -1.14301100489683418e-02 4 6 4 0 3.29618901220965099e-01 5 6 5 0 -2.82551225333008971e-01 1 7 6 0 -3.58781794901005868e-01 2 7 7 0 -2.48041823372477682e-01 3 7 8 0 -1.31108255273284180e-01 4 7 9 0 -1.35340824373997748e-01 5 7 10 0 4.13794958323705775e-02 5 2 0.00000000000000000e+00 0.00000000000000000e+00 0 0.00000000000000000e+00 0'
p23
bag1
(tRp24
S'22 serialization::archive 14 0 0 511 0 0 7 0 0 0 1 1 0.00000000000000000e+00 0.00000000000000000e+00 0.00000000000000000e+00 0.00000000000000000e+00 0 1 1 0.00000000000000000e+00 2 1 0.00000000000000000e+00 0.00000000000000000e+00 0.00000000000000000e+00 0.00000000000000000e+00 0 1 1 0.00000000000000000e+00 3 1 0.00000000000000000e+00 0.00000000000000000e+00 0.00000000000000000e+00 0.00000000000000000e+00 0 1 1 0.00000000000000000e+00 4 1 0.00000000000000000e+00 0.00000000000000000e+00 0.00000000000000000e+00 0.00000000000000000e+00 0 1 1 0.00000000000000000e+00 5 2 0.00000000000000000e+00 0.00000000000000000e+00 0.00000000000000000e+00 0.00000000000000000e+00 0 1 1 0.00000000000000000e+00 6 4 1.00000000000000000e+00 0.00000000000000000e+00 0.00000000000000000e+00 0.00000000000000000e+00 -568408262 22011 8 1.00000000000000000e+00 7 4 1.00000000000000000e+00 0.00000000000000000e+00 0.00000000000000000e+00 0.00000000000000000e+00 -568408262 22011 0 1.00000000000000000e+00 0 0 10 0 0 0 1 6 1 0 3.16969389992300399e-01 2 6 2 0 8.17561155883595875e-02 3 6 3 0 -7.15463443775661290e-02 4 6 4 0 2.99443809708463848e-01 5 6 5 0 -2.82729738357011262e-01 1 7 6 0 -3.29148410703055505e-01 2 7 7 0 -2.47134478163206966e-01 3 7 8 0 -1.37361607289494730e-01 4 7 9 0 -4.56558172823861227e-02 5 7 10 0 9.14250319648999554e-02 5 2 0.00000000000000000e+00 0.00000000000000000e+00 0 0.00000000000000000e+00 0'
p25
bag1
(tRp26
S'22 serialization::archive 14 0 0 512 0 0 8 0 0 0 1 1 0.00000000000000000e+00 0.00000000000000000e+00 0.00000000000000000e+00 0.00000000000000000e+00 4 1 1 0.00000000000000000e+00 2 1 0.00000000000000000e+00 0.00000000000000000e+00 0.00000000000000000e+00 0.00000000000000000e+00 4 1 1 0.00000000000000000e+00 3 1 0.00000000000000000e+00 0.00000000000000000e+00 0.00000000000000000e+00 0.00000000000000000e+00 4 1 1 0.00000000000000000e+00 4 1 0.00000000000000000e+00 0.00000000000000000e+00 0.00000000000000000e+00 0.00000000000000000e+00 4 1 1 0.00000000000000000e+00 5 2 0.00000000000000000e+00 0.00000000000000000e+00 0.00000000000000000e+00 0.00000000000000000e+00 4 1 1 0.00000000000000000e+00 6 4 1.00000000000000000e+00 0.00000000000000000e+00 0.00000000000000000e+00 0.00000000000000000e+00 -568408262 22011 1 1.00000000000000000e+00 7 4 1.00000000000000000e+00 0.00000000000000000e+00 0.00000000000000000e+00 0.00000000000000000e+00 -568408262 22011 1 1.00000000000000000e+00 8 3 1.00000000000000000e+00 0.00000000000000000e+00 0.00000000000000000e+00 0.00000000000000000e+00 128 0 4 5.00000000000000000e-01 0 0 11 0 0 0 1 6 1 0 5.30524574461742393e-01 2 6 2 0 1.65059730195207532e-01 3 6 3 0 -1.16052340698661299e-01 5 6 5 0 -5.79498132644221231e-01 1 7 6 0 -5.46380958144436546e-01 2 7 7 0 -4.75769574343576140e-01 3 7 8 0 -1.30794170330045756e-01 4 7 9 0 -2.45200938974448959e-02 5 7 10 0 6.27082808641716838e-02 4 8 12 0 1.07077984018033012e+00 8 6 13 0 5.59126745606772557e-01 5 2 0.00000000000000000e+00 0.00000000000000000e+00 0 0.00000000000000000e+00 0'
p27
bag1
(tRp28
S'22 serialization::archive 14 0 0 513 0 0 8 0 0 0 1 1 0.00000000000000000e+00 0.00000000000000000e+00 0.00000000000000000e+00 0.00000000000000000e+00 0 1 1 0.00000000000000000e+00 2 1 0.00000000000000000e+00 0.00000000000000000e+00 0.00000000000000000e+00 0.00000000000000000e+00 0 1 1 0.00000000000000000e+00 3 1 0.00000000000000000e+00 0.00000000000000000e+00 0.00000000000000000e+00 0.00000000000000000e+00 0 1 1 0.00000000000000000e+00 4 1 0.00000000000000000e+00 0.00000000000000000e+00 0.00000000000000000e+00 0.00000000000000000e+00 0 1 1 0.00000000000000000e+00 5 2 0.00000000000000000e+00 0.00000000000000000e+00 0.00000000000000000e+00 0.00000000000000000e+00 0 1 1 0.00000000000000000e+00 6 4 1.00000000000000000e+00 0.00000000000000000e+00 0.00000000000000000e+00 0.00000000000000000e+00 -568408262 22011 1 1.00000000000000000e+00 7 4 1.00000000000000000e+00 0.00000000000000000e+00 0.00000000000000000e+00 0.00000000000000000e+00 -568408262 22011 1 1.00000000000000000e+00 8 3 1.00000000000000000e+00 0.00000000000000000e+00 0.00000000000000000e+00 0.00000000000000000e+00 128 0 4 5.00000000000000000e-01 0 0 11 0 0 0 1 6 1 0 4.95635378672159288e-01 2 6 2 0 1.18131229578284550e-01 3 6 3 0 -1.09543201123597111e-01 5 6 5 0 -5.56106671225279570e-01 1 7 6 0 -6.05844478259678021e-01 2 7 7 0 -3.06556484173052035e-01 3 7 8 0 -5.93448103114496972e-02 4 7 9 0 4.78794556613138453e-02 5 7 10 0 -2.05598252732306724e-01 4 8 12 0 1.06759814345059567e+00 8 6 13 0 4.04583112965337943e-01 5 2 0.00000000000000000e+00 0.00000000000000000e+00 0 0.00000000000000000e+00 0'
p29
bag1
(tRp30
S'22 serialization::archive 14 0 0 514 0 0 8 0 0 0 1 1 0.00000000000000000e+00 0.00000000000000000e+00 0.00000000000000000e+00 0.00000000000000000e+00 4 1 1 0.00000000000000000e+00 2 1 0.00000000000000000e+00 0.00000000000000000e+00 0.00000000000000000e+00 0.00000000000000000e+00 4 1 1 0.00000000000000000e+00 3 1 0.00000000000000000e+00 0.00000000000000000e+00 0.00000000000000000e+00 0.00000000000000000e+00 4 1 1 0.00000000000000000e+00 4 1 0.00000000000000000e+00 0.00000000000000000e+00 0.00000000000000000e+00 0.00000000000000000e+00 4 1 1 0.00000000000000000e+00 5 2 0.00000000000000000e+00 0.00000000000000000e+00 0.00000000000000000e+00 0.00000000000000000e+00 4 1 1 0.00000000000000000e+00 6 4 1.00000000000000000e+00 0.00000000000000000e+00 0.00000000000000000e+00 0.00000000000000000e+00 -568408262 22011 1 1.00000000000000000e+00 7 4 1.00000000000000000e+00 0.00000000000000000e+00 0.00000000000000000e+00 0.00000000000000000e+00 -568408262 22011 1 1.00000000000000000e+00 8 3 1.00000000000000000e+00 0.00000000000000000e+00 0.00000000000000000e+00 0.00000000000000000e+00 128 0 4 5.00000000000000000e-01 0 0 11 0 0 0 1 6 1 0 5.68491095522767886e-01 2 6 2 0 1.59473805094603460e-01 3 6 3 0 -5.75438042287715248e-03 5 6 5 0 -5.79498132644221231e-01 1 7 6 0 -5.90002427712897792e-01 2 7 7 0 -4.75769574343576140e-01 3 7 8 0 -1.00707086262991657e-01 4 7 9 0 4.63168027345091105e-02 5 7 10 0 6.27082808641716838e-02 4 8 12 0 1.07077984018033012e+00 8 6 13 0 4.65470680431462835e-01 5 2 0.00000000000000000e+00 0.00000000000000000e+00 0 0.00000000000000000e+00 0'
p31
bag1
(tRp32
S'22 serialization::archive 14 0 0 515 0 0 8 0 0 0 1 1 0.00000000000000000e+00 0.00000000000000000e+00 0.00000000000000000e+00 0.00000000000000000e+00 4 1 1 0.00000000000000000e+00 2 1 0.00000000000000000e+00 0.00000000000000000e+00 0.00000000000000000e+00 0.00000000000000000e+00 4 1 1 0.00000000000000000e+00 3 1 0.00000000000000000e+00 0.00000000000000000e+00 0.00000000000000000e+00 0.00000000000000000e+00 4 1 1 0.00000000000000000e+00 4 1 0.00000000000000000e+00 0.00000000000000000e+00 0.00000000000000000e+00 0.00000000000000000e+00 4 1 1 0.00000000000000000e+00 5 2 0.00000000000000000e+00 0.00000000000000000e+00 0.00000000000000000e+00 0.00000000000000000e+00 4 1 1 0.00000000000000000e+00 6 4 1.00000000000000000e+00 0.00000000000000000e+00 0.00000000000000000e+00 0.00000000000000000e+00 -568408262 22011 1 1.00000000000000000e+00 7 4 1.00000000000000000e+00 0.00000000000000000e+00 0.00000000000000000e+00 0.00000000000000000e+00 -568408262 22011 1 1.00000000000000000e+00 8 3 1.00000000000000000e+00 0.00000000000000000e+00 0.00000000000000000e+00 0.00000000000000000e+00 128 0 4 5.00000000000000000e-01 0 0 12 0 0 0 1 6 1 0 5.30524574461742393e-01 2 6 2 0 1.65059730195207532e-01 3 6 3 0 -1.16052340698661299e-01 5 6 5 0 -5.79498132644221231e-01 1 7 6 0 -5.46380958144436546e-01 2 7 7 0 -4.75769574343576140e-01 3 7 8 0 -1.30794170330045756e-01 4 7 9 0 -2.45200938974448959e-02 5 7 10 0 6.27082808641716838e-02 4 8 12 0 1.07077984018033012e+00 8 6 13 0 5.59126745606772557e-01 3 8 15 0 7.35824147239327431e-01 5 2 0.00000000000000000e+00 0.00000000000000000e+00 0 0.00000000000000000e+00 0'
p33
bag1
(tRp34
S'22 serialization::archive 14 0 0 516 0 0 8 0 0 0 1 1 0.00000000000000000e+00 0.00000000000000000e+00 0.00000000000000000e+00 0.00000000000000000e+00 0 1 1 0.00000000000000000e+00 2 1 0.00000000000000000e+00 0.00000000000000000e+00 0.00000000000000000e+00 0.00000000000000000e+00 0 1 1 0.00000000000000000e+00 3 1 0.00000000000000000e+00 0.00000000000000000e+00 0.00000000000000000e+00 0.00000000000000000e+00 0 1 1 0.00000000000000000e+00 4 1 0.00000000000000000e+00 0.00000000000000000e+00 0.00000000000000000e+00 0.00000000000000000e+00 0 1 1 0.00000000000000000e+00 5 2 0.00000000000000000e+00 0.00000000000000000e+00 0.00000000000000000e+00 0.00000000000000000e+00 0 1 1 0.00000000000000000e+00 6 4 1.00000000000000000e+00 0.00000000000000000e+00 0.00000000000000000e+00 0.00000000000000000e+00 -568408262 22011 1 1.00000000000000000e+00 7 4 1.00000000000000000e+00 0.00000000000000000e+00 0.00000000000000000e+00 0.00000000000000000e+00 -568408262 22011 1 1.00000000000000000e+00 8 3 1.00000000000000000e+00 0.00000000000000000e+00 0.00000000000000000e+00 0.00000000000000000e+00 128 0 4 5.00000000000000000e-01 0 0 11 0 0 0 1 6 1 0 5.41622008554986767e-01 2 6 2 0 1.59473805094603460e-01 3 6 3 0 -5.75438042287715248e-03 5 6 5 0 -5.58056184323504567e-01 1 7 6 0 -5.90002427712897792e-01 2 7 7 0 -6.43564177048392638e-01 3 7 8 0 -1.00707086262991657e-01 4 7 9 0 3.33367861880106003e-02 5 7 10 0 -1.47402813192456961e-01 4 8 12 0 1.04685998786953860e+00 8 6 13 0 4.65470680431462835e-01 5 2 0.00000000000000000e+00 0.00000000000000000e+00 0 0.00000000000000000e+00 0'
p35
bag1
(tRp36
S'22 serialization::archive 14 0 0 517 0 0 8 0 0 0 1 1 0.00000000000000000e+00 0.00000000000000000e+00 0.00000000000000000e+00 0.00000000000000000e+00 0 1 1 0.00000000000000000e+00 2 1 0.00000000000000000e+00 0.00000000000000000e+00 0.00000000000000000e+00 0.00000000000000000e+00 0 1 1 0.00000000000000000e+00 3 1 0.00000000000000000e+00 0.00000000000000000e+00 0.00000000000000000e+00 0.00000000000000000e+00 0 1 1 0.00000000000000000e+00 4 1 0.00000000000000000e+00 0.00000000000000000e+00 0.00000000000000000e+00 0.00000000000000000e+00 0 1 1 0.00000000000000000e+00 5 2 0.00000000000000000e+00 0.00000000000000000e+00 0.00000000000000000e+00 0.00000000000000000e+00 0 1 1 0.00000000000000000e+00 6 4 1.00000000000000000e+00 0.00000000000000000e+00 0.00000000000000000e+00 0.00000000000000000e+00 -568408262 22011 1 1.00000000000000000e+00 7 4 1.00000000000000000e+00 0.00000000000000000e+00 0.00000000000000000e+00 0.00000000000000000e+00 -568408262 22011 1 1.00000000000000000e+00 8 3 1.00000000000000000e+00 0.00000000000000000e+00 0.00000000000000000e+00 0.00000000000000000e+00 128 0 4 5.00000000000000000e-01 0 0 11 0 0 0 1 6 1 0 6.26682559246546589e-01 2 6 2 0 1.39777209260501002e-02 3 6 3 0 -7.10435886227060165e-02 5 6 5 0 -6.44939610548317388e-01 1 7 6 0 -5.95731842095847286e-01 2 7 7 0 -4.47636469523422453e-01 3 7 8 0 -1.98222256213193782e-01 4 7 9 0 5.88480964303016649e-02 5 7 10 0 -1.73992622736841435e-01 4 8 12 0 1.03057758449358516e+00 8 6 13 0 6.07486261217854984e-01 5 2 0.00000000000000000e+00 0.00000000000000000e+00 0 0.00000000000000000e+00 0'
p37
bag1
(tRp38
S'22 serialization::archive 14 0 0 518 0 0 8 0 0 0 1 1 0.00000000000000000e+00 0.00000000000000000e+00 0.00000000000000000e+00 0.00000000000000000e+00 0 1 1 0.00000000000000000e+00 2 1 0.00000000000000000e+00 0.00000000000000000e+00 0.00000000000000000e+00 0.00000000000000000e+00 0 1 1 0.00000000000000000e+00 3 1 0.00000000000000000e+00 0.00000000000000000e+00 0.00000000000000000e+00 0.00000000000000000e+00 0 1 1 0.00000000000000000e+00 4 1 0.00000000000000000e+00 0.00000000000000000e+00 0.00000000000000000e+00 0.00000000000000000e+00 0 1 1 0.00000000000000000e+00 5 2 0.00000000000000000e+00 0.00000000000000000e+00 0.00000000000000000e+00 0.00000000000000000e+00 0 1 1 0.00000000000000000e+00 6 4 1.00000000000000000e+00 0.00000000000000000e+00 0.00000000000000000e+00 0.00000000000000000e+00 -568408262 22011 1 1.00000000000000000e+00 7 4 1.00000000000000000e+00 0.00000000000000000e+00 0.00000000000000000e+00 0.00000000000000000e+00 -568408262 22011 1 1.00000000000000000e+00 8 3 1.00000000000000000e+00 0.00000000000000000e+00 0.00000000000000000e+00 0.00000000000000000e+00 128 0 4 5.00000000000000000e-01 0 0 11 0 0 0 1 6 1 0 5.68491095522767886e-01 2 6 2 0 1.59473805094603460e-01 3 6 3 0 -5.75438042287715248e-03 5 6 5 0 -5.58056184323504567e-01 1 7 6 0 -5.90002427712897792e-01 2 7 7 0 -4.60119715402834140e-01 3 7 8 0 -1.00707086262991657e-01 4 7 9 0 3.33367861880106003e-02 5 7 10 0 -1.47402813192456961e-01 4 8 12 0 1.04685998786953860e+00 8 6 13 0 4.65470680431462835e-01 5 2 0.00000000000000000e+00 0.00000000000000000e+00 0 0.00000000000000000e+00 0'
p39
bag1
(tRp40
S'22 serialization::archive 14 0 0 519 0 0 8 0 0 0 1 1 0.00000000000000000e+00 0.00000000000000000e+00 0.00000000000000000e+00 0.00000000000000000e+00 0 1 1 0.00000000000000000e+00 2 1 0.00000000000000000e+00 0.00000000000000000e+00 0.00000000000000000e+00 0.00000000000000000e+00 0 1 1 0.00000000000000000e+00 3 1 0.00000000000000000e+00 0.00000000000000000e+00 0.00000000000000000e+00 0.00000000000000000e+00 0 1 1 0.00000000000000000e+00 4 1 0.00000000000000000e+00 0.00000000000000000e+00 0.00000000000000000e+00 0.00000000000000000e+00 0 1 1 0.00000000000000000e+00 5 2 0.00000000000000000e+00 0.00000000000000000e+00 0.00000000000000000e+00 0.00000000000000000e+00 0 1 1 0.00000000000000000e+00 6 4 1.00000000000000000e+00 0.00000000000000000e+00 0.00000000000000000e+00 0.00000000000000000e+00 -568408262 22011 1 1.00000000000000000e+00 7 4 1.00000000000000000e+00 0.00000000000000000e+00 0.00000000000000000e+00 0.00000000000000000e+00 -568408262 22011 1 1.00000000000000000e+00 8 3 1.00000000000000000e+00 0.00000000000000000e+00 0.00000000000000000e+00 0.00000000000000000e+00 128 0 4 5.00000000000000000e-01 0 0 11 0 0 0 1 6 1 0 5.30524574461742393e-01 2 6 2 0 1.59473805094603460e-01 3 6 3 0 -5.75438042287715248e-03 5 6 5 0 -5.79498132644221231e-01 1 7 6 0 -5.46380958144436546e-01 2 7 7 0 -4.75769574343576140e-01 3 7 8 0 -1.30794170330045756e-01 4 7 9 0 4.63168027345091105e-02 5 7 10 0 6.27082808641716838e-02 4 8 12 0 1.04685998786953860e+00 8 6 13 0 4.65470680431462835e-01 5 2 0.00000000000000000e+00 0.00000000000000000e+00 0 0.00000000000000000e+00 0'
p41
bag1
(tRp42
S'22 serialization::archive 14 0 0 520 0 0 8 0 0 0 1 1 0.00000000000000000e+00 0.00000000000000000e+00 0.00000000000000000e+00 0.00000000000000000e+00 0 1 1 0.00000000000000000e+00 2 1 0.00000000000000000e+00 0.00000000000000000e+00 0.00000000000000000e+00 0.00000000000000000e+00 0 1 1 0.00000000000000000e+00 3 1 0.00000000000000000e+00 0.00000000000000000e+00 0.00000000000000000e+00 0.00000000000000000e+00 0 1 1 0.00000000000000000e+00 4 1 0.00000000000000000e+00 0.00000000000000000e+00 0.00000000000000000e+00 0.00000000000000000e+00 0 1 1 0.00000000000000000e+00 5 2 0.00000000000000000e+00 0.00000000000000000e+00 0.00000000000000000e+00 0.00000000000000000e+00 0 1 1 0.00000000000000000e+00 6 4 1.00000000000000000e+00 0.00000000000000000e+00 0.00000000000000000e+00 0.00000000000000000e+00 -568408262 22011 1 1.00000000000000000e+00 7 4 1.00000000000000000e+00 0.00000000000000000e+00 0.00000000000000000e+00 0.00000000000000000e+00 -568408262 22011 1 1.00000000000000000e+00 8 3 1.00000000000000000e+00 0.00000000000000000e+00 0.00000000000000000e+00 0.00000000000000000e+00 128 0 4 5.00000000000000000e-01 0 0 11 0 0 0 1 6 1 0 -3.17182739963755012e-01 2 6 2 0 2.08301946113351732e-01 3 6 3 0 1.63277208979707190e-02 5 6 5 0 -5.42890195176005341e-01 1 7 6 0 -5.90002427712897792e-01 2 7 7 0 -5.67011230415664591e-01 3 7 8 0 -8.85300379653927022e-02 4 7 9 0 1.87664326978847384e-01 5 7 10 0 -1.19949353346601131e-01 4 8 12 0 1.16721154656261206e-01 8 6 13 0 4.26315852650441252e-01 5 2 0.00000000000000000e+00 0.00000000000000000e+00 0 0.00000000000000000e+00 0'
p43
bag1
(tRp44
S'22 serialization::archive 14 0 0 521 0 0 8 0 0 0 1 1 0.00000000000000000e+00 0.00000000000000000e+00 0.00000000000000000e+00 0.00000000000000000e+00 0 1 1 0.00000000000000000e+00 2 1 0.00000000000000000e+00 0.00000000000000000e+00 0.00000000000000000e+00 0.00000000000000000e+00 0 1 1 0.00000000000000000e+00 3 1 0.00000000000000000e+00 0.00000000000000000e+00 0.00000000000000000e+00 0.00000000000000000e+00 0 1 1 0.00000000000000000e+00 4 1 0.00000000000000000e+00 0.00000000000000000e+00 0.00000000000000000e+00 0.00000000000000000e+00 0 1 1 0.00000000000000000e+00 5 2 0.00000000000000000e+00 0.00000000000000000e+00 0.00000000000000000e+00 0.00000000000000000e+00 0 1 1 0.00000000000000000e+00 6 4 1.00000000000000000e+00 0.00000000000000000e+00 0.00000000000000000e+00 0.00000000000000000e+00 -568408262 22011 1 1.00000000000000000e+00 7 4 1.00000000000000000e+00 0.00000000000000000e+00 0.00000000000000000e+00 0.00000000000000000e+00 -568408262 22011 1 1.00000000000000000e+00 8 3 1.00000000000000000e+00 0.00000000000000000e+00 0.00000000000000000e+00 0.00000000000000000e+00 128 0 4 5.00000000000000000e-01 0 0 12 0 0 0 1 6 1 0 5.68491095522767886e-01 2 6 2 0 1.59473805094603460e-01 3 6 3 0 -5.75438042287715248e-03 5 6 5 0 -5.58056184323504567e-01 1 7 6 0 -5.90002427712897792e-01 2 7 7 0 -4.60119715402834140e-01 3 7 8 0 -1.00707086262991657e-01 4 7 9 0 4.63168027345091105e-02 5 7 10 0 -1.47402813192456961e-01 4 8 12 0 1.04685998786953860e+00 8 6 13 0 4.65470680431462835e-01 3 8 15 0 1.88944113440811634e-01 5 2 0.00000000000000000e+00 0.00000000000000000e+00 0 0.00000000000000000e+00 0'
p45
bag1
(tRp46
S'22 serialization::archive 14 0 0 522 0 0 8 0 0 0 1 1 0.00000000000000000e+00 0.00000000000000000e+00 0.00000000000000000e+00 0.00000000000000000e+00 0 1 1 0.00000000000000000e+00 2 1 0.00000000000000000e+00 0.00000000000000000e+00 0.00000000000000000e+00 0.00000000000000000e+00 0 1 1 0.00000000000000000e+00 3 1 0.00000000000000000e+00 0.00000000000000000e+00 0.00000000000000000e+00 0.00000000000000000e+00 0 1 1 0.00000000000000000e+00 4 1 0.00000000000000000e+00 0.00000000000000000e+00 0.00000000000000000e+00 0.00000000000000000e+00 0 1 1 0.00000000000000000e+00 5 2 0.00000000000000000e+00 0.00000000000000000e+00 0.00000000000000000e+00 0.00000000000000000e+00 0 1 1 0.00000000000000000e+00 6 4 1.00000000000000000e+00 0.00000000000000000e+00 0.00000000000000000e+00 0.00000000000000000e+00 -568408262 22011 1 1.00000000000000000e+00 7 4 1.00000000000000000e+00 0.00000000000000000e+00 0.00000000000000000e+00 0.00000000000000000e+00 -568408262 22011 1 1.00000000000000000e+00 8 3 1.00000000000000000e+00 0.00000000000000000e+00 0.00000000000000000e+00 0.00000000000000000e+00 128 0 4 5.00000000000000000e-01 0 0 11 0 0 0 1 6 1 0 5.68491095522767886e-01 2 6 2 0 1.65059730195207532e-01 3 6 3 0 -5.75438042287715248e-03 5 6 5 0 -5.79498132644221231e-01 1 7 6 0 -5.46380958144436546e-01 2 7 7 0 -4.75769574343576140e-01 3 7 8 0 -1.30794170330045756e-01 4 7 9 0 -2.45200938974448959e-02 5 7 10 0 6.27082808641716838e-02 4 8 12 0 1.04685998786953860e+00 8 6 13 0 5.59126745606772557e-01 5 2 0.00000000000000000e+00 0.00000000000000000e+00 0 0.00000000000000000e+00 0'
p47
bag1
(tRp48
S'22 serialization::archive 14 0 0 523 0 0 8 0 0 0 1 1 0.00000000000000000e+00 0.00000000000000000e+00 0.00000000000000000e+00 0.00000000000000000e+00 0 1 1 0.00000000000000000e+00 2 1 0.00000000000000000e+00 0.00000000000000000e+00 0.00000000000000000e+00 0.00000000000000000e+00 0 1 1 0.00000000000000000e+00 3 1 0.00000000000000000e+00 0.00000000000000000e+00 0.00000000000000000e+00 0.00000000000000000e+00 0 1 1 0.00000000000000000e+00 4 1 0.00000000000000000e+00 0.00000000000000000e+00 0.00000000000000000e+00 0.00000000000000000e+00 0 1 1 0.00000000000000000e+00 5 2 0.00000000000000000e+00 0.00000000000000000e+00 0.00000000000000000e+00 0.00000000000000000e+00 0 1 1 0.00000000000000000e+00 6 4 1.00000000000000000e+00 0.00000000000000000e+00 0.00000000000000000e+00 0.00000000000000000e+00 -568408262 22011 1 1.00000000000000000e+00 7 4 1.00000000000000000e+00 0.00000000000000000e+00 0.00000000000000000e+00 0.00000000000000000e+00 -568408262 22011 1 1.00000000000000000e+00 8 3 1.00000000000000000e+00 0.00000000000000000e+00 0.00000000000000000e+00 0.00000000000000000e+00 128 0 4 5.00000000000000000e-01 0 0 11 0 0 0 1 6 1 0 5.41622008554986767e-01 2 6 2 0 1.59473805094603460e-01 3 6 3 0 -1.16052340698661299e-01 5 6 5 0 -5.58056184323504567e-01 1 7 6 0 -5.90002427712897792e-01 2 7 7 0 -4.75769574343576140e-01 3 7 8 0 -1.30794170330045756e-01 4 7 9 0 3.33367861880106003e-02 5 7 10 0 -1.47402813192456961e-01 4 8 12 0 1.20681139267762760e+00 8 6 13 0 5.59126745606772557e-01 5 2 0.00000000000000000e+00 0.00000000000000000e+00 0 0.00000000000000000e+00 0'
p49
bag1
(tRp50
S'22 serialization::archive 14 0 0 524 0 0 8 0 0 0 1 1 0.00000000000000000e+00 0.00000000000000000e+00 0.00000000000000000e+00 0.00000000000000000e+00 0 1 1 0.00000000000000000e+00 2 1 0.00000000000000000e+00 0.00000000000000000e+00 0.00000000000000000e+00 0.00000000000000000e+00 0 1 1 0.00000000000000000e+00 3 1 0.00000000000000000e+00 0.00000000000000000e+00 0.00000000000000000e+00 0.00000000000000000e+00 0 1 1 0.00000000000000000e+00 4 1 0.00000000000000000e+00 0.00000000000000000e+00 0.00000000000000000e+00 0.00000000000000000e+00 0 1 1 0.00000000000000000e+00 5 2 0.00000000000000000e+00 0.00000000000000000e+00 0.00000000000000000e+00 0.00000000000000000e+00 0 1 1 0.00000000000000000e+00 6 4 1.00000000000000000e+00 0.00000000000000000e+00 0.00000000000000000e+00 0.00000000000000000e+00 -568408262 22011 1 1.00000000000000000e+00 7 4 1.00000000000000000e+00 0.00000000000000000e+00 0.00000000000000000e+00 0.00000000000000000e+00 -568408262 22011 1 1.00000000000000000e+00 8 3 1.00000000000000000e+00 0.00000000000000000e+00 0.00000000000000000e+00 0.00000000000000000e+00 128 0 4 5.00000000000000000e-01 0 0 11 0 0 0 1 6 1 0 5.68491095522767886e-01 2 6 2 0 1.59473805094603460e-01 3 6 3 0 -5.75438042287715248e-03 5 6 5 0 -5.58056184323504567e-01 1 7 6 0 -5.90002427712897792e-01 2 7 7 0 -6.43564177048392638e-01 3 7 8 0 -1.00707086262991657e-01 4 7 9 0 3.33367861880106003e-02 5 7 10 0 -1.47402813192456961e-01 4 8 12 0 1.20681139267762760e+00 8 6 13 0 4.65470680431462835e-01 5 2 0.00000000000000000e+00 0.00000000000000000e+00 0 0.00000000000000000e+00 0'
p51
ba.